

Microchip MPLAB XC8 Assembler V2.36 build 20220127204148 
                                                                                               Fri Feb 03 14:04:40 2023

Microchip MPLAB XC8 C Compiler v2.36 (Free license) build 20220127204148 Og1 
     1                           	processor	16F887
     2                           	pagewidth 120
     3                           	opt	flic
     4                           	psect	idataBANK3,global,class=CODE,delta=2,noexec
     5                           	psect	strings,global,class=STRING,delta=2,noexec
     6                           	psect	cinit,global,class=CODE,merge=1,delta=2
     7                           	psect	bssBANK0,global,class=BANK0,space=1,delta=1,noexec
     8                           	psect	bssBANK1,global,class=BANK1,space=1,delta=1,noexec
     9                           	psect	bssBANK3,global,class=BANK3,space=1,delta=1,noexec
    10                           	psect	dataBANK3,global,class=BANK3,space=1,delta=1,noexec
    11                           	psect	inittext,global,class=CODE,delta=2
    12                           	psect	clrtext,global,class=CODE,delta=2
    13                           	psect	cstackBANK1,global,class=BANK1,space=1,delta=1,noexec
    14                           	psect	cstackCOMMON,global,class=COMMON,space=1,delta=1,noexec
    15                           	psect	cstackBANK0,global,class=BANK0,space=1,delta=1,noexec
    16                           	psect	maintext,global,class=CODE,split=1,delta=2
    17                           	psect	text1,local,class=CODE,merge=1,delta=2,group=3
    18                           	psect	text2,local,class=CODE,merge=1,delta=2,group=3
    19                           	psect	text3,local,class=CODE,merge=1,delta=2,group=1
    20                           	psect	text4,local,class=CODE,merge=1,delta=2,group=2
    21                           	psect	text5,local,class=CODE,merge=1,delta=2,group=2
    22                           	psect	text6,local,class=CODE,merge=1,delta=2,group=3
    23                           	psect	text7,local,class=CODE,merge=1,delta=2,group=3
    24                           	psect	text8,local,class=CODE,merge=1,delta=2,group=2
    25                           	psect	text9,local,class=CODE,merge=1,delta=2,group=3
    26                           	psect	text10,local,class=CODE,merge=1,delta=2,group=2
    27                           	psect	text11,local,class=CODE,merge=1,delta=2,group=2
    28                           	psect	text12,local,class=CODE,merge=1,delta=2,group=2
    29                           	psect	text13,local,class=CODE,merge=1,delta=2,group=2
    30                           	psect	text14,local,class=CODE,merge=1,delta=2,group=2
    31                           	psect	text15,local,class=CODE,merge=1,delta=2,group=2
    32                           	psect	text16,local,class=CODE,merge=1,delta=2,group=2
    33                           	psect	text17,local,class=CODE,merge=1,delta=2
    34                           	psect	text18,local,class=CODE,merge=1,delta=2
    35                           	psect	text19,local,class=CODE,merge=1,delta=2
    36                           	psect	text20,local,class=CODE,merge=1,delta=2,group=2
    37                           	psect	text21,local,class=CODE,merge=1,delta=2
    38                           	psect	text22,local,class=CODE,merge=1,delta=2
    39                           	psect	text23,local,class=CODE,merge=1,delta=2
    40                           	psect	text24,local,class=CODE,merge=1,delta=2
    41                           	psect	text25,local,class=CODE,merge=1,delta=2
    42                           	psect	text26,local,class=CODE,merge=1,delta=2
    43                           	psect	text27,local,class=CODE,merge=1,delta=2
    44                           	psect	text28,local,class=CODE,merge=1,delta=2
    45                           	psect	config,global,abs,ovrld,class=CONFIG,space=4,delta=2,noexec
    46                           	dabs	1,0x7E,2
    47  0000                     
    48                           ; Version 2.40
    49                           ; Generated 17/11/2021 GMT
    50                           ; 
    51                           ; Copyright © 2021, Microchip Technology Inc. and its subsidiaries ("Microchip")
    52                           ; All rights reserved.
    53                           ; 
    54                           ; This software is developed by Microchip Technology Inc. and its subsidiaries ("Microch
      +                          ip").
    55                           ; 
    56                           ; Redistribution and use in source and binary forms, with or without modification, are
    57                           ; permitted provided that the following conditions are met:
    58                           ; 
    59                           ;     1. Redistributions of source code must retain the above copyright notice, this lis
      +                          t of
    60                           ;        conditions and the following disclaimer.
    61                           ; 
    62                           ;     2. Redistributions in binary form must reproduce the above copyright notice, this 
      +                          list
    63                           ;        of conditions and the following disclaimer in the documentation and/or other
    64                           ;        materials provided with the distribution. Publication is not required when
    65                           ;        this file is used in an embedded application.
    66                           ; 
    67                           ;     3. Microchip's name may not be used to endorse or promote products derived from th
      +                          is
    68                           ;        software without specific prior written permission.
    69                           ; 
    70                           ; THIS SOFTWARE IS PROVIDED BY MICROCHIP "AS IS" AND ANY EXPRESS OR IMPLIED WARRANTIES,
    71                           ; INCLUDING, BUT NOT LIMITED TO, THE IMPLIED WARRANTIES OF MERCHANTABILITY AND FITNESS F
      +                          OR
    72                           ; PURPOSE ARE DISCLAIMED.  IN NO EVENT SHALL MICROCHIP BE LIABLE FOR ANY DIRECT, INDIREC
      +                          T,
    73                           ; INCIDENTAL, SPECIAL, EXEMPLARY, OR CONSEQUENTIAL DAMAGES (INCLUDING BUT NOT LIMITED TO
    74                           ; PROCUREMENT OF SUBSTITUTE GOODS OR SERVICES; LOSS OF USE, DATA OR PROFITS; OR BUSINESS
    75                           ; INTERRUPTION) HOWSOEVER CAUSED AND ON ANY THEORY OF LIABILITY, WHETHER IN CONTRACT, ST
      +                          RICT
    76                           ; LIABILITY, OR TORT (INCLUDING NEGLIGENCE OR OTHERWISE) ARISING IN ANY WAY OUT OF THE U
      +                          SE OF
    77                           ; THIS SOFTWARE, EVEN IF ADVISED OF THE POSSIBILITY OF SUCH DAMAGE.
    78                           ; 
    79                           ; 
    80                           ; Code-generator required, PIC16F887 Definitions
    81                           ; 
    82                           ; SFR Addresses
    83  0000                     	;# 
    84  0001                     	;# 
    85  0002                     	;# 
    86  0003                     	;# 
    87  0004                     	;# 
    88  0005                     	;# 
    89  0006                     	;# 
    90  0007                     	;# 
    91  0008                     	;# 
    92  0009                     	;# 
    93  000A                     	;# 
    94  000B                     	;# 
    95  000C                     	;# 
    96  000D                     	;# 
    97  000E                     	;# 
    98  000E                     	;# 
    99  000F                     	;# 
   100  0010                     	;# 
   101  0011                     	;# 
   102  0012                     	;# 
   103  0013                     	;# 
   104  0014                     	;# 
   105  0015                     	;# 
   106  0015                     	;# 
   107  0016                     	;# 
   108  0017                     	;# 
   109  0018                     	;# 
   110  0019                     	;# 
   111  001A                     	;# 
   112  001B                     	;# 
   113  001B                     	;# 
   114  001C                     	;# 
   115  001D                     	;# 
   116  001E                     	;# 
   117  001F                     	;# 
   118  0081                     	;# 
   119  0085                     	;# 
   120  0086                     	;# 
   121  0087                     	;# 
   122  0088                     	;# 
   123  0089                     	;# 
   124  008C                     	;# 
   125  008D                     	;# 
   126  008E                     	;# 
   127  008F                     	;# 
   128  0090                     	;# 
   129  0091                     	;# 
   130  0092                     	;# 
   131  0093                     	;# 
   132  0093                     	;# 
   133  0093                     	;# 
   134  0094                     	;# 
   135  0095                     	;# 
   136  0096                     	;# 
   137  0097                     	;# 
   138  0098                     	;# 
   139  0099                     	;# 
   140  009A                     	;# 
   141  009B                     	;# 
   142  009C                     	;# 
   143  009D                     	;# 
   144  009E                     	;# 
   145  009F                     	;# 
   146  0105                     	;# 
   147  0107                     	;# 
   148  0108                     	;# 
   149  0109                     	;# 
   150  010C                     	;# 
   151  010C                     	;# 
   152  010D                     	;# 
   153  010E                     	;# 
   154  010F                     	;# 
   155  0185                     	;# 
   156  0187                     	;# 
   157  0188                     	;# 
   158  0189                     	;# 
   159  018C                     	;# 
   160  018D                     	;# 
   161  0000                     	;# 
   162  0001                     	;# 
   163  0002                     	;# 
   164  0003                     	;# 
   165  0004                     	;# 
   166  0005                     	;# 
   167  0006                     	;# 
   168  0007                     	;# 
   169  0008                     	;# 
   170  0009                     	;# 
   171  000A                     	;# 
   172  000B                     	;# 
   173  000C                     	;# 
   174  000D                     	;# 
   175  000E                     	;# 
   176  000E                     	;# 
   177  000F                     	;# 
   178  0010                     	;# 
   179  0011                     	;# 
   180  0012                     	;# 
   181  0013                     	;# 
   182  0014                     	;# 
   183  0015                     	;# 
   184  0015                     	;# 
   185  0016                     	;# 
   186  0017                     	;# 
   187  0018                     	;# 
   188  0019                     	;# 
   189  001A                     	;# 
   190  001B                     	;# 
   191  001B                     	;# 
   192  001C                     	;# 
   193  001D                     	;# 
   194  001E                     	;# 
   195  001F                     	;# 
   196  0081                     	;# 
   197  0085                     	;# 
   198  0086                     	;# 
   199  0087                     	;# 
   200  0088                     	;# 
   201  0089                     	;# 
   202  008C                     	;# 
   203  008D                     	;# 
   204  008E                     	;# 
   205  008F                     	;# 
   206  0090                     	;# 
   207  0091                     	;# 
   208  0092                     	;# 
   209  0093                     	;# 
   210  0093                     	;# 
   211  0093                     	;# 
   212  0094                     	;# 
   213  0095                     	;# 
   214  0096                     	;# 
   215  0097                     	;# 
   216  0098                     	;# 
   217  0099                     	;# 
   218  009A                     	;# 
   219  009B                     	;# 
   220  009C                     	;# 
   221  009D                     	;# 
   222  009E                     	;# 
   223  009F                     	;# 
   224  0105                     	;# 
   225  0107                     	;# 
   226  0108                     	;# 
   227  0109                     	;# 
   228  010C                     	;# 
   229  010C                     	;# 
   230  010D                     	;# 
   231  010E                     	;# 
   232  010F                     	;# 
   233  0185                     	;# 
   234  0187                     	;# 
   235  0188                     	;# 
   236  0189                     	;# 
   237  018C                     	;# 
   238  018D                     	;# 
   239  0000                     	;# 
   240  0001                     	;# 
   241  0002                     	;# 
   242  0003                     	;# 
   243  0004                     	;# 
   244  0005                     	;# 
   245  0006                     	;# 
   246  0007                     	;# 
   247  0008                     	;# 
   248  0009                     	;# 
   249  000A                     	;# 
   250  000B                     	;# 
   251  000C                     	;# 
   252  000D                     	;# 
   253  000E                     	;# 
   254  000E                     	;# 
   255  000F                     	;# 
   256  0010                     	;# 
   257  0011                     	;# 
   258  0012                     	;# 
   259  0013                     	;# 
   260  0014                     	;# 
   261  0015                     	;# 
   262  0015                     	;# 
   263  0016                     	;# 
   264  0017                     	;# 
   265  0018                     	;# 
   266  0019                     	;# 
   267  001A                     	;# 
   268  001B                     	;# 
   269  001B                     	;# 
   270  001C                     	;# 
   271  001D                     	;# 
   272  001E                     	;# 
   273  001F                     	;# 
   274  0081                     	;# 
   275  0085                     	;# 
   276  0086                     	;# 
   277  0087                     	;# 
   278  0088                     	;# 
   279  0089                     	;# 
   280  008C                     	;# 
   281  008D                     	;# 
   282  008E                     	;# 
   283  008F                     	;# 
   284  0090                     	;# 
   285  0091                     	;# 
   286  0092                     	;# 
   287  0093                     	;# 
   288  0093                     	;# 
   289  0093                     	;# 
   290  0094                     	;# 
   291  0095                     	;# 
   292  0096                     	;# 
   293  0097                     	;# 
   294  0098                     	;# 
   295  0099                     	;# 
   296  009A                     	;# 
   297  009B                     	;# 
   298  009C                     	;# 
   299  009D                     	;# 
   300  009E                     	;# 
   301  009F                     	;# 
   302  0105                     	;# 
   303  0107                     	;# 
   304  0108                     	;# 
   305  0109                     	;# 
   306  010C                     	;# 
   307  010C                     	;# 
   308  010D                     	;# 
   309  010E                     	;# 
   310  010F                     	;# 
   311  0185                     	;# 
   312  0187                     	;# 
   313  0188                     	;# 
   314  0189                     	;# 
   315  018C                     	;# 
   316  018D                     	;# 
   317  0000                     	;# 
   318  0001                     	;# 
   319  0002                     	;# 
   320  0003                     	;# 
   321  0004                     	;# 
   322  0005                     	;# 
   323  0006                     	;# 
   324  0007                     	;# 
   325  0008                     	;# 
   326  0009                     	;# 
   327  000A                     	;# 
   328  000B                     	;# 
   329  000C                     	;# 
   330  000D                     	;# 
   331  000E                     	;# 
   332  000E                     	;# 
   333  000F                     	;# 
   334  0010                     	;# 
   335  0011                     	;# 
   336  0012                     	;# 
   337  0013                     	;# 
   338  0014                     	;# 
   339  0015                     	;# 
   340  0015                     	;# 
   341  0016                     	;# 
   342  0017                     	;# 
   343  0018                     	;# 
   344  0019                     	;# 
   345  001A                     	;# 
   346  001B                     	;# 
   347  001B                     	;# 
   348  001C                     	;# 
   349  001D                     	;# 
   350  001E                     	;# 
   351  001F                     	;# 
   352  0081                     	;# 
   353  0085                     	;# 
   354  0086                     	;# 
   355  0087                     	;# 
   356  0088                     	;# 
   357  0089                     	;# 
   358  008C                     	;# 
   359  008D                     	;# 
   360  008E                     	;# 
   361  008F                     	;# 
   362  0090                     	;# 
   363  0091                     	;# 
   364  0092                     	;# 
   365  0093                     	;# 
   366  0093                     	;# 
   367  0093                     	;# 
   368  0094                     	;# 
   369  0095                     	;# 
   370  0096                     	;# 
   371  0097                     	;# 
   372  0098                     	;# 
   373  0099                     	;# 
   374  009A                     	;# 
   375  009B                     	;# 
   376  009C                     	;# 
   377  009D                     	;# 
   378  009E                     	;# 
   379  009F                     	;# 
   380  0105                     	;# 
   381  0107                     	;# 
   382  0108                     	;# 
   383  0109                     	;# 
   384  010C                     	;# 
   385  010C                     	;# 
   386  010D                     	;# 
   387  010E                     	;# 
   388  010F                     	;# 
   389  0185                     	;# 
   390  0187                     	;# 
   391  0188                     	;# 
   392  0189                     	;# 
   393  018C                     	;# 
   394  018D                     	;# 
   395  0000                     	;# 
   396  0001                     	;# 
   397  0002                     	;# 
   398  0003                     	;# 
   399  0004                     	;# 
   400  0005                     	;# 
   401  0006                     	;# 
   402  0007                     	;# 
   403  0008                     	;# 
   404  0009                     	;# 
   405  000A                     	;# 
   406  000B                     	;# 
   407  000C                     	;# 
   408  000D                     	;# 
   409  000E                     	;# 
   410  000E                     	;# 
   411  000F                     	;# 
   412  0010                     	;# 
   413  0011                     	;# 
   414  0012                     	;# 
   415  0013                     	;# 
   416  0014                     	;# 
   417  0015                     	;# 
   418  0015                     	;# 
   419  0016                     	;# 
   420  0017                     	;# 
   421  0018                     	;# 
   422  0019                     	;# 
   423  001A                     	;# 
   424  001B                     	;# 
   425  001B                     	;# 
   426  001C                     	;# 
   427  001D                     	;# 
   428  001E                     	;# 
   429  001F                     	;# 
   430  0081                     	;# 
   431  0085                     	;# 
   432  0086                     	;# 
   433  0087                     	;# 
   434  0088                     	;# 
   435  0089                     	;# 
   436  008C                     	;# 
   437  008D                     	;# 
   438  008E                     	;# 
   439  008F                     	;# 
   440  0090                     	;# 
   441  0091                     	;# 
   442  0092                     	;# 
   443  0093                     	;# 
   444  0093                     	;# 
   445  0093                     	;# 
   446  0094                     	;# 
   447  0095                     	;# 
   448  0096                     	;# 
   449  0097                     	;# 
   450  0098                     	;# 
   451  0099                     	;# 
   452  009A                     	;# 
   453  009B                     	;# 
   454  009C                     	;# 
   455  009D                     	;# 
   456  009E                     	;# 
   457  009F                     	;# 
   458  0105                     	;# 
   459  0107                     	;# 
   460  0108                     	;# 
   461  0109                     	;# 
   462  010C                     	;# 
   463  010C                     	;# 
   464  010D                     	;# 
   465  010E                     	;# 
   466  010F                     	;# 
   467  0185                     	;# 
   468  0187                     	;# 
   469  0188                     	;# 
   470  0189                     	;# 
   471  018C                     	;# 
   472  018D                     	;# 
   473  0000                     	;# 
   474  0001                     	;# 
   475  0002                     	;# 
   476  0003                     	;# 
   477  0004                     	;# 
   478  0005                     	;# 
   479  0006                     	;# 
   480  0007                     	;# 
   481  0008                     	;# 
   482  0009                     	;# 
   483  000A                     	;# 
   484  000B                     	;# 
   485  000C                     	;# 
   486  000D                     	;# 
   487  000E                     	;# 
   488  000E                     	;# 
   489  000F                     	;# 
   490  0010                     	;# 
   491  0011                     	;# 
   492  0012                     	;# 
   493  0013                     	;# 
   494  0014                     	;# 
   495  0015                     	;# 
   496  0015                     	;# 
   497  0016                     	;# 
   498  0017                     	;# 
   499  0018                     	;# 
   500  0019                     	;# 
   501  001A                     	;# 
   502  001B                     	;# 
   503  001B                     	;# 
   504  001C                     	;# 
   505  001D                     	;# 
   506  001E                     	;# 
   507  001F                     	;# 
   508  0081                     	;# 
   509  0085                     	;# 
   510  0086                     	;# 
   511  0087                     	;# 
   512  0088                     	;# 
   513  0089                     	;# 
   514  008C                     	;# 
   515  008D                     	;# 
   516  008E                     	;# 
   517  008F                     	;# 
   518  0090                     	;# 
   519  0091                     	;# 
   520  0092                     	;# 
   521  0093                     	;# 
   522  0093                     	;# 
   523  0093                     	;# 
   524  0094                     	;# 
   525  0095                     	;# 
   526  0096                     	;# 
   527  0097                     	;# 
   528  0098                     	;# 
   529  0099                     	;# 
   530  009A                     	;# 
   531  009B                     	;# 
   532  009C                     	;# 
   533  009D                     	;# 
   534  009E                     	;# 
   535  009F                     	;# 
   536  0105                     	;# 
   537  0107                     	;# 
   538  0108                     	;# 
   539  0109                     	;# 
   540  010C                     	;# 
   541  010C                     	;# 
   542  010D                     	;# 
   543  010E                     	;# 
   544  010F                     	;# 
   545  0185                     	;# 
   546  0187                     	;# 
   547  0188                     	;# 
   548  0189                     	;# 
   549  018C                     	;# 
   550  018D                     	;# 
   551                           
   552                           	psect	idataBANK3
   553  130F                     __pidataBANK3:
   554                           
   555                           ;initializer for keypad_getkey@F1296
   556  130F  3431               	retlw	49
   557  1310  3432               	retlw	50
   558  1311  3433               	retlw	51
   559  1312  3441               	retlw	65
   560  1313  3434               	retlw	52
   561  1314  3435               	retlw	53
   562  1315  3436               	retlw	54
   563  1316  3442               	retlw	66
   564  1317  3437               	retlw	55
   565  1318  3438               	retlw	56
   566  1319  3439               	retlw	57
   567  131A  3443               	retlw	67
   568  131B  342A               	retlw	42
   569  131C  3430               	retlw	48
   570  131D  3423               	retlw	35
   571  131E  3444               	retlw	68
   572                           
   573                           	psect	strings
   574  0800                     __pstrings:
   575  0800                     stringtab:
   576  0800                     __stringtab:
   577                           
   578                           ;	String table - string pointers are 1 byte each
   579  0800  1BFF               	btfsc	btemp+1,7
   580  0801  280A               	ljmp	stringcode
   581  0802  1383               	bcf	3,7
   582  0803  187F               	btfsc	btemp+1,0
   583  0804  1783               	bsf	3,7
   584  0805  0800               	movf	0,w
   585  0806  0A84               	incf	4,f
   586  0807  1903               	skipnz
   587  0808  0AFF               	incf	btemp+1,f
   588  0809  0008               	return
   589  080A                     stringcode:
   590  080A                     stringdir:
   591  080A  3008               	movlw	high stringdir
   592  080B  008A               	movwf	10
   593  080C  0804               	movf	4,w
   594  080D  0A84               	incf	4,f
   595  080E  0782               	addwf	2,f
   596  080F                     __stringbase:
   597  080F  3400               	retlw	0
   598  0810                     __end_of__stringtab:
   599  0810                     _dpowers:
   600  0810  3401               	retlw	1
   601  0811  3400               	retlw	0
   602  0812  340A               	retlw	10
   603  0813  3400               	retlw	0
   604  0814  3464               	retlw	100
   605  0815  3400               	retlw	0
   606  0816  34E8               	retlw	232
   607  0817  3403               	retlw	3
   608  0818  3410               	retlw	16
   609  0819  3427               	retlw	39
   610  081A                     __end_of_dpowers:
   611  081A                     log@coeff:
   612  081A  3400               	retlw	0
   613  081B  3400               	retlw	0
   614  081C  3400               	retlw	0
   615  081D  3400               	retlw	0
   616  081E  34C4               	retlw	196
   617  081F  34FF               	retlw	255
   618  0820  347F               	retlw	127
   619  0821  343F               	retlw	63
   620  0822  3480               	retlw	128
   621  0823  34EF               	retlw	239
   622  0824  34FF               	retlw	255
   623  0825  34BE               	retlw	190
   624  0826  3490               	retlw	144
   625  0827  34E1               	retlw	225
   626  0828  34A9               	retlw	169
   627  0829  343E               	retlw	62
   628  082A  34EC               	retlw	236
   629  082B  3482               	retlw	130
   630  082C  3476               	retlw	118
   631  082D  34BE               	retlw	190
   632  082E  3482               	retlw	130
   633  082F  34AD               	retlw	173
   634  0830  342B               	retlw	43
   635  0831  343E               	retlw	62
   636  0832  340E               	retlw	14
   637  0833  343C               	retlw	60
   638  0834  34C3               	retlw	195
   639  0835  34BD               	retlw	189
   640  0836  3487               	retlw	135
   641  0837  34D1               	retlw	209
   642  0838  3413               	retlw	19
   643  0839  343D               	retlw	61
   644  083A  3441               	retlw	65
   645  083B  3478               	retlw	120
   646  083C  34D3               	retlw	211
   647  083D  34BB               	retlw	187
   648  083E                     __end_oflog@coeff:
   649  001A                     _RCREG	set	26
   650  0018                     _RCSTAbits	set	24
   651  0019                     _TXREG	set	25
   652  0018                     _RCSTA	set	24
   653  001F                     _ADCON0bits	set	31
   654  001F                     _ADCON0	set	31
   655  001E                     _ADRESH	set	30
   656  0006                     _PORTB	set	6
   657  0008                     _PORTDbits	set	8
   658  0008                     _PORTD	set	8
   659  0009                     _PORTEbits	set	9
   660  00C4                     _CREN	set	196
   661  0065                     _RCIF	set	101
   662  0064                     _TXIF	set	100
   663  00F9                     _GO	set	249
   664  00F8                     _ADON	set	248
   665  0098                     _TXSTA	set	152
   666  0099                     _SPBRG	set	153
   667  009E                     _ADRESL	set	158
   668  009F                     _ADCON1bits	set	159
   669  0081                     _OPTION_REGbits	set	129
   670  0086                     _TRISB	set	134
   671  0088                     _TRISD	set	136
   672  0089                     _TRISE	set	137
   673  008F                     _OSCCON	set	143
   674  043F                     _TRISC7	set	1087
   675  043E                     _TRISC6	set	1086
   676  042A                     _TRISA2	set	1066
   677  0429                     _TRISA1	set	1065
   678  0428                     _TRISA0	set	1064
   679  0188                     _ANSEL	set	392
   680  083E                     STR_2:
   681  083E  3425               	retlw	37	;'%'
   682  083F  3464               	retlw	100	;'d'
   683  0840  3425               	retlw	37	;'%'
   684  0841  3463               	retlw	99	;'c'
   685  0842  3443               	retlw	67	;'C'
   686  0843  3420               	retlw	32	;' '
   687  0844  3420               	retlw	32	;' '
   688  0845  3400               	retlw	0
   689  0846                     STR_4:
   690  0846  3425               	retlw	37	;'%'
   691  0847  3464               	retlw	100	;'d'
   692  0848  3425               	retlw	37	;'%'
   693  0849  3463               	retlw	99	;'c'
   694  084A  3420               	retlw	32	;' '
   695  084B  3420               	retlw	32	;' '
   696  084C  3400               	retlw	0
   697  084D                     STR_6:
   698  084D  3425               	retlw	37	;'%'
   699  084E  3464               	retlw	100	;'d'
   700  084F  3420               	retlw	32	;' '
   701  0850  3420               	retlw	32	;' '
   702  0851  3400               	retlw	0
   703  0852                     STR_3:
   704  0852  3448               	retlw	72	;'H'
   705  0853  343A               	retlw	58	;':'
   706  0854  3420               	retlw	32	;' '
   707  0855  3400               	retlw	0
   708  0856                     STR_5:
   709  0856  344C               	retlw	76	;'L'
   710  0857  343A               	retlw	58	;':'
   711  0858  3420               	retlw	32	;' '
   712  0859  3400               	retlw	0
   713  085A                     STR_1:
   714  085A  3454               	retlw	84	;'T'
   715  085B  343A               	retlw	58	;':'
   716  085C  3420               	retlw	32	;' '
   717  085D  3400               	retlw	0
   718                           
   719                           	psect	cinit
   720  07DC                     start_initialization:	
   721                           ; #config settings
   722                           
   723  07DC                     __initialization:
   724                           
   725                           ; Initialize objects allocated to BANK3
   726  07DC  1783               	bsf	3,7	;select IRP bank2
   727  07DD  30C0               	movlw	low (__pdataBANK3+16)
   728  07DE  00FD               	movwf	btemp+-1
   729  07DF  3013               	movlw	high __pidataBANK3
   730  07E0  00FE               	movwf	btemp
   731  07E1  300F               	movlw	low __pidataBANK3
   732  07E2  00FF               	movwf	btemp+1
   733  07E3  30B0               	movlw	low __pdataBANK3
   734  07E4  0084               	movwf	4
   735  07E5  120A  158A  2063  120A  118A  	fcall	init_ram0
   736                           
   737                           ; Clear objects allocated to BANK3
   738  07EA  3090               	movlw	low __pbssBANK3
   739  07EB  0084               	movwf	4
   740  07EC  30B0               	movlw	low (__pbssBANK3+32)
   741  07ED  160A  118A  22ED  120A  118A  	fcall	clear_ram0
   742                           
   743                           ; Clear objects allocated to BANK1
   744  07F2  1383               	bcf	3,7	;select IRP bank0
   745  07F3  30CD               	movlw	low __pbssBANK1
   746  07F4  0084               	movwf	4
   747  07F5  30E4               	movlw	low (__pbssBANK1+23)
   748  07F6  160A  118A  22ED  120A  118A  	fcall	clear_ram0
   749                           
   750                           ; Clear objects allocated to BANK0
   751  07FB  01EE               	clrf	__pbssBANK0& (0+127)
   752  07FC                     end_of_initialization:	
   753                           ;End of C runtime variable initialization code
   754                           
   755  07FC                     __end_of__initialization:
   756  07FC  0183               	clrf	3
   757  07FD  120A  118A  2C1B   	ljmp	_main	;jump to C main() function
   758                           
   759                           	psect	bssBANK0
   760  006E                     __pbssBANK0:
   761  006E                     _idx:
   762  006E                     	ds	1
   763                           
   764                           	psect	bssBANK1
   765  00CD                     __pbssBANK1:
   766  00CD                     _Sensor_Luz:
   767  00CD                     	ds	4
   768  00D1                     _errno:
   769  00D1                     	ds	2
   770  00D3                     _Sensor_Humedad:
   771  00D3                     	ds	4
   772  00D7                     _Sensor_Temperatura:
   773  00D7                     	ds	4
   774  00DB                     _Humedad:
   775  00DB                     	ds	4
   776  00DF                     _Temperatura:
   777  00DF                     	ds	4
   778  00E3                     _Luz:
   779  00E3                     	ds	1
   780                           
   781                           	psect	bssBANK3
   782  0190                     __pbssBANK3:
   783  0190                     _Fila2:
   784  0190                     	ds	16
   785  01A0                     _Fila1:
   786  01A0                     	ds	16
   787                           
   788                           	psect	dataBANK3
   789  01B0                     __pdataBANK3:
   790  01B0                     keypad_getkey@F1296:
   791  01B0                     	ds	16
   792                           
   793                           	psect	inittext
   794  085F                     init_fetch0:	
   795                           ;	Called with low address in FSR and high address in W
   796                           
   797  085F  087E               	movf	btemp,w
   798  0860  008A               	movwf	10
   799  0861  087F               	movf	btemp+1,w
   800  0862  0082               	movwf	2
   801  0863                     init_ram0:	
   802                           ;Called with:
   803                           ;	high address of idata address in btemp 
   804                           ;	low address of idata address in btemp+1 
   805                           ;	low address of data in FSR
   806                           ;	high address + 1 of data in btemp-1
   807                           
   808  0863  120A  158A  205F  120A  158A  	fcall	init_fetch0
   809  0868  0080               	movwf	0
   810  0869  0A84               	incf	4,f
   811  086A  0804               	movf	4,w
   812  086B  067D               	xorwf	btemp+-1,w
   813  086C  1903               	btfsc	3,2
   814  086D  3400               	retlw	0
   815  086E  0AFF               	incf	btemp+1,f
   816  086F  1903               	btfsc	3,2
   817  0870  0AFE               	incf	btemp,f
   818  0871  2863               	goto	init_ram0
   819                           
   820                           	psect	clrtext
   821  12ED                     clear_ram0:	
   822                           ;	Called with FSR containing the base address, and
   823                           ;	W with the last address+1
   824                           
   825  12ED  0064               	clrwdt	;clear the watchdog before getting into this loop
   826  12EE                     clrloop0:
   827  12EE  0180               	clrf	0	;clear RAM location pointed to by FSR
   828  12EF  0A84               	incf	4,f	;increment pointer
   829  12F0  0604               	xorwf	4,w	;XOR with final address
   830  12F1  1903               	btfsc	3,2	;have we reached the end yet?
   831  12F2  3400               	retlw	0	;all done for this memory range, return
   832  12F3  0604               	xorwf	4,w	;XOR again to restore value
   833  12F4  2AEE               	goto	clrloop0	;do the next byte
   834                           
   835                           	psect	cstackBANK1
   836  00A0                     __pcstackBANK1:
   837  00A0                     ?_eval_poly:
   838  00A0                     eval_poly@x:	
   839                           ; 4 bytes @ 0x0
   840                           
   841                           
   842                           ; 4 bytes @ 0x0
   843  00A0                     	ds	4
   844  00A4                     eval_poly@d:
   845                           
   846                           ; 1 bytes @ 0x4
   847  00A4                     	ds	1
   848  00A5                     eval_poly@n:
   849                           
   850                           ; 2 bytes @ 0x5
   851  00A5                     	ds	2
   852  00A7                     ??_eval_poly:
   853                           
   854                           ; 1 bytes @ 0x7
   855  00A7                     	ds	5
   856  00AC                     eval_poly@res:
   857                           
   858                           ; 4 bytes @ 0xC
   859  00AC                     	ds	4
   860  00B0                     ?_log:
   861  00B0                     log@x:	
   862                           ; 4 bytes @ 0x10
   863                           
   864                           
   865                           ; 4 bytes @ 0x10
   866  00B0                     	ds	4
   867  00B4                     log@exponent:
   868                           
   869                           ; 2 bytes @ 0x14
   870  00B4                     	ds	2
   871  00B6                     ??_main:
   872                           
   873                           ; 1 bytes @ 0x16
   874  00B6                     	ds	3
   875  00B9                     main@Porcentaje_Humedad:
   876                           
   877                           ; 4 bytes @ 0x19
   878  00B9                     	ds	4
   879  00BD                     _main$1091:
   880                           
   881                           ; 4 bytes @ 0x1D
   882  00BD                     	ds	4
   883  00C1                     _main$1092:
   884                           
   885                           ; 4 bytes @ 0x21
   886  00C1                     	ds	4
   887  00C5                     _main$1093:
   888                           
   889                           ; 4 bytes @ 0x25
   890  00C5                     	ds	4
   891  00C9                     main@Valor_Temperatura:
   892                           
   893                           ; 4 bytes @ 0x29
   894  00C9                     	ds	4
   895                           
   896                           	psect	cstackCOMMON
   897  0070                     __pcstackCOMMON:
   898  0070                     ?___fleq:
   899  0070                     ?___flge:	
   900                           ; 1 bit 
   901                           
   902  0070                     ?_LCD_Init:	
   903                           ; 1 bit 
   904                           
   905  0070                     ?_ADC_Init:	
   906                           ; 1 bytes @ 0x0
   907                           
   908  0070                     ??_ADC_Init:	
   909                           ; 1 bytes @ 0x0
   910                           
   911  0070                     ?_LCD_Command:	
   912                           ; 1 bytes @ 0x0
   913                           
   914  0070                     ??_LCD_Command:	
   915                           ; 1 bytes @ 0x0
   916                           
   917  0070                     ?_strcpy:	
   918                           ; 1 bytes @ 0x0
   919                           
   920  0070                     ?_strcat:	
   921                           ; 1 bytes @ 0x0
   922                           
   923  0070                     ?_USART_SendString:	
   924                           ; 1 bytes @ 0x0
   925                           
   926  0070                     ?_LCD_Clear:	
   927                           ; 1 bytes @ 0x0
   928                           
   929  0070                     ?_main:	
   930                           ; 1 bytes @ 0x0
   931                           
   932  0070                     ?_LCD_Char:	
   933                           ; 1 bytes @ 0x0
   934                           
   935  0070                     ??_LCD_Char:	
   936                           ; 1 bytes @ 0x0
   937                           
   938  0070                     ?_LCD_String:	
   939                           ; 1 bytes @ 0x0
   940                           
   941  0070                     ?_USART_TxChar:	
   942                           ; 1 bytes @ 0x0
   943                           
   944  0070                     ??_USART_TxChar:	
   945                           ; 1 bytes @ 0x0
   946                           
   947  0070                     ?_ADC_Read:	
   948                           ; 1 bytes @ 0x0
   949                           
   950  0070                     ?__Umul8_16:	
   951                           ; 2 bytes @ 0x0
   952                           
   953  0070                     ?___lwdiv:	
   954                           ; 2 bytes @ 0x0
   955                           
   956  0070                     ?___aldiv:	
   957                           ; 2 bytes @ 0x0
   958                           
   959  0070                     ?___fltol:	
   960                           ; 4 bytes @ 0x0
   961                           
   962  0070                     ?___xxtofl:	
   963                           ; 4 bytes @ 0x0
   964                           
   965  0070                     USART_TxChar@out:	
   966                           ; 4 bytes @ 0x0
   967                           
   968  0070                     __Umul8_16@multiplicand:	
   969                           ; 1 bytes @ 0x0
   970                           
   971  0070                     strcpy@from:	
   972                           ; 1 bytes @ 0x0
   973                           
   974  0070                     ADC_Read@channel:	
   975                           ; 1 bytes @ 0x0
   976                           
   977  0070                     ___lwdiv@divisor:	
   978                           ; 2 bytes @ 0x0
   979                           
   980  0070                     strcat@from:	
   981                           ; 2 bytes @ 0x0
   982                           
   983  0070                     ___aldiv@divisor:	
   984                           ; 2 bytes @ 0x0
   985                           
   986  0070                     ___fleq@ff1:	
   987                           ; 4 bytes @ 0x0
   988                           
   989  0070                     ___flge@ff1:	
   990                           ; 4 bytes @ 0x0
   991                           
   992  0070                     ___fltol@f1:	
   993                           ; 4 bytes @ 0x0
   994                           
   995  0070                     ___xxtofl@val:	
   996                           ; 4 bytes @ 0x0
   997                           
   998                           
   999                           ; 4 bytes @ 0x0
  1000  0070                     	ds	1
  1001  0071                     ??_strcpy:
  1002  0071                     ??_USART_SendString:	
  1003                           ; 1 bytes @ 0x1
  1004                           
  1005                           
  1006                           ; 1 bytes @ 0x1
  1007  0071                     	ds	1
  1008  0072                     ??_ADC_Read:
  1009  0072                     ??_strcat:	
  1010                           ; 1 bytes @ 0x2
  1011                           
  1012  0072                     ??__Umul8_16:	
  1013                           ; 1 bytes @ 0x2
  1014                           
  1015  0072                     LCD_Command@cmd:	
  1016                           ; 1 bytes @ 0x2
  1017                           
  1018  0072                     LCD_Char@dat:	
  1019                           ; 1 bytes @ 0x2
  1020                           
  1021  0072                     USART_SendString@out:	
  1022                           ; 1 bytes @ 0x2
  1023                           
  1024  0072                     strcpy@cp:	
  1025                           ; 1 bytes @ 0x2
  1026                           
  1027  0072                     ___lwdiv@dividend:	
  1028                           ; 1 bytes @ 0x2
  1029                           
  1030                           
  1031                           ; 2 bytes @ 0x2
  1032  0072                     	ds	1
  1033  0073                     ??_LCD_Init:
  1034  0073                     ??_LCD_Clear:	
  1035                           ; 1 bytes @ 0x3
  1036                           
  1037  0073                     ??_LCD_String:	
  1038                           ; 1 bytes @ 0x3
  1039                           
  1040  0073                     strcat@to:	
  1041                           ; 1 bytes @ 0x3
  1042                           
  1043  0073                     strcpy@to:	
  1044                           ; 1 bytes @ 0x3
  1045                           
  1046                           
  1047                           ; 1 bytes @ 0x3
  1048  0073                     	ds	1
  1049  0074                     ??___fltol:
  1050  0074                     ??___lwdiv:	
  1051                           ; 1 bytes @ 0x4
  1052                           
  1053  0074                     ??___xxtofl:	
  1054                           ; 1 bytes @ 0x4
  1055                           
  1056  0074                     LCD_String@msg:	
  1057                           ; 1 bytes @ 0x4
  1058                           
  1059  0074                     strcat@cp:	
  1060                           ; 1 bytes @ 0x4
  1061                           
  1062  0074                     __Umul8_16@product:	
  1063                           ; 1 bytes @ 0x4
  1064                           
  1065  0074                     ___aldiv@dividend:	
  1066                           ; 2 bytes @ 0x4
  1067                           
  1068  0074                     ___fleq@ff2:	
  1069                           ; 4 bytes @ 0x4
  1070                           
  1071  0074                     ___flge@ff2:	
  1072                           ; 4 bytes @ 0x4
  1073                           
  1074                           
  1075                           ; 4 bytes @ 0x4
  1076  0074                     	ds	1
  1077  0075                     ?_LCD_String_xy:
  1078  0075                     LCD_String_xy@pos:	
  1079                           ; 1 bytes @ 0x5
  1080                           
  1081  0075                     ADC_Read@digital:	
  1082                           ; 1 bytes @ 0x5
  1083                           
  1084  0075                     ___lwdiv@quotient:	
  1085                           ; 2 bytes @ 0x5
  1086                           
  1087                           
  1088                           ; 2 bytes @ 0x5
  1089  0075                     	ds	1
  1090  0076                     LCD_String_xy@msg:
  1091  0076                     __Umul8_16@word_mpld:	
  1092                           ; 1 bytes @ 0x6
  1093                           
  1094                           
  1095                           ; 2 bytes @ 0x6
  1096  0076                     	ds	1
  1097  0077                     ??_LCD_String_xy:
  1098  0077                     ___lwdiv@counter:	
  1099                           ; 1 bytes @ 0x7
  1100                           
  1101                           
  1102                           ; 1 bytes @ 0x7
  1103  0077                     	ds	1
  1104  0078                     ??___aldiv:
  1105  0078                     ??___fleq:	
  1106                           ; 1 bytes @ 0x8
  1107                           
  1108  0078                     ??___flge:	
  1109                           ; 1 bytes @ 0x8
  1110                           
  1111  0078                     ?___lwmod:	
  1112                           ; 1 bytes @ 0x8
  1113                           
  1114  0078                     LCD_String_xy@row:	
  1115                           ; 2 bytes @ 0x8
  1116                           
  1117  0078                     __Umul8_16@multiplier:	
  1118                           ; 1 bytes @ 0x8
  1119                           
  1120  0078                     ___xxtofl@sign:	
  1121                           ; 1 bytes @ 0x8
  1122                           
  1123  0078                     ___lwmod@divisor:	
  1124                           ; 1 bytes @ 0x8
  1125                           
  1126                           
  1127                           ; 2 bytes @ 0x8
  1128  0078                     	ds	1
  1129  0079                     ??_USART_Init:
  1130  0079                     LCD_String_xy@location:	
  1131                           ; 1 bytes @ 0x9
  1132                           
  1133  0079                     ___fltol@sign1:	
  1134                           ; 1 bytes @ 0x9
  1135                           
  1136  0079                     ___xxtofl@exp:	
  1137                           ; 1 bytes @ 0x9
  1138                           
  1139  0079                     _USART_Init$1094:	
  1140                           ; 1 bytes @ 0x9
  1141                           
  1142                           
  1143                           ; 4 bytes @ 0x9
  1144  0079                     	ds	1
  1145  007A                     ___fltol@exp1:
  1146  007A                     ___lwmod@dividend:	
  1147                           ; 1 bytes @ 0xA
  1148                           
  1149  007A                     ___xxtofl@arg:	
  1150                           ; 2 bytes @ 0xA
  1151                           
  1152                           
  1153                           ; 4 bytes @ 0xA
  1154  007A                     	ds	2
  1155  007C                     ??_frexp:
  1156  007C                     ??___lwmod:	
  1157                           ; 1 bytes @ 0xC
  1158                           
  1159                           
  1160                           ; 1 bytes @ 0xC
  1161  007C                     	ds	1
  1162  007D                     ___lwmod@counter:
  1163                           
  1164                           ; 1 bytes @ 0xD
  1165  007D                     	ds	1
  1166                           
  1167                           	psect	cstackBANK0
  1168  0020                     __pcstackBANK0:
  1169  0020                     ?_sprintf:
  1170  0020                     ?_frexp:	
  1171                           ; 2 bytes @ 0x0
  1172                           
  1173  0020                     sprintf@f:	
  1174                           ; 4 bytes @ 0x0
  1175                           
  1176  0020                     ___aldiv@counter:	
  1177                           ; 1 bytes @ 0x0
  1178                           
  1179  0020                     frexp@value:	
  1180                           ; 1 bytes @ 0x0
  1181                           
  1182                           
  1183                           ; 4 bytes @ 0x0
  1184  0020                     	ds	1
  1185  0021                     ___aldiv@sign:
  1186                           
  1187                           ; 1 bytes @ 0x1
  1188  0021                     	ds	1
  1189  0022                     ___aldiv@quotient:
  1190                           
  1191                           ; 4 bytes @ 0x2
  1192  0022                     	ds	2
  1193  0024                     frexp@eptr:
  1194                           
  1195                           ; 1 bytes @ 0x4
  1196  0024                     	ds	1
  1197  0025                     ??_sprintf:
  1198  0025                     ?___flmul:	
  1199                           ; 1 bytes @ 0x5
  1200                           
  1201  0025                     ___flmul@b:	
  1202                           ; 4 bytes @ 0x5
  1203                           
  1204                           
  1205                           ; 4 bytes @ 0x5
  1206  0025                     	ds	1
  1207  0026                     ?_USART_Init:
  1208  0026                     USART_Init@baud_rate:	
  1209                           ; 1 bytes @ 0x6
  1210                           
  1211                           
  1212                           ; 4 bytes @ 0x6
  1213  0026                     	ds	2
  1214  0028                     sprintf@flag:
  1215                           
  1216                           ; 1 bytes @ 0x8
  1217  0028                     	ds	1
  1218  0029                     sprintf@prec:
  1219  0029                     ___flmul@a:	
  1220                           ; 1 bytes @ 0x9
  1221                           
  1222                           
  1223                           ; 4 bytes @ 0x9
  1224  0029                     	ds	1
  1225  002A                     sprintf@ap:
  1226                           
  1227                           ; 1 bytes @ 0xA
  1228  002A                     	ds	1
  1229  002B                     sprintf@val:
  1230                           
  1231                           ; 2 bytes @ 0xB
  1232  002B                     	ds	2
  1233  002D                     ??___flmul:
  1234  002D                     sprintf@sp:	
  1235                           ; 1 bytes @ 0xD
  1236                           
  1237                           
  1238                           ; 1 bytes @ 0xD
  1239  002D                     	ds	1
  1240  002E                     sprintf@c:
  1241                           
  1242                           ; 1 bytes @ 0xE
  1243  002E                     	ds	4
  1244  0032                     ___flmul@sign:
  1245                           
  1246                           ; 1 bytes @ 0x12
  1247  0032                     	ds	1
  1248  0033                     ___flmul@grs:
  1249                           
  1250                           ; 4 bytes @ 0x13
  1251  0033                     	ds	4
  1252  0037                     ___flmul@aexp:
  1253                           
  1254                           ; 1 bytes @ 0x17
  1255  0037                     	ds	1
  1256  0038                     ___flmul@bexp:
  1257                           
  1258                           ; 1 bytes @ 0x18
  1259  0038                     	ds	1
  1260  0039                     ___flmul@prod:
  1261                           
  1262                           ; 4 bytes @ 0x19
  1263  0039                     	ds	4
  1264  003D                     ___flmul@temp:
  1265                           
  1266                           ; 2 bytes @ 0x1D
  1267  003D                     	ds	2
  1268  003F                     ?___fldiv:
  1269  003F                     ___fldiv@a:	
  1270                           ; 4 bytes @ 0x1F
  1271                           
  1272                           
  1273                           ; 4 bytes @ 0x1F
  1274  003F                     	ds	4
  1275  0043                     ___fldiv@b:
  1276                           
  1277                           ; 4 bytes @ 0x23
  1278  0043                     	ds	4
  1279  0047                     ??___fldiv:
  1280                           
  1281                           ; 1 bytes @ 0x27
  1282  0047                     	ds	5
  1283  004C                     ___fldiv@rem:
  1284                           
  1285                           ; 4 bytes @ 0x2C
  1286  004C                     	ds	4
  1287  0050                     ___fldiv@sign:
  1288                           
  1289                           ; 1 bytes @ 0x30
  1290  0050                     	ds	1
  1291  0051                     ___fldiv@new_exp:
  1292                           
  1293                           ; 2 bytes @ 0x31
  1294  0051                     	ds	2
  1295  0053                     ___fldiv@grs:
  1296                           
  1297                           ; 4 bytes @ 0x33
  1298  0053                     	ds	4
  1299  0057                     ___fldiv@bexp:
  1300                           
  1301                           ; 1 bytes @ 0x37
  1302  0057                     	ds	1
  1303  0058                     ___fldiv@aexp:
  1304                           
  1305                           ; 1 bytes @ 0x38
  1306  0058                     	ds	1
  1307  0059                     ?___fladd:
  1308  0059                     ___fladd@b:	
  1309                           ; 4 bytes @ 0x39
  1310                           
  1311                           
  1312                           ; 4 bytes @ 0x39
  1313  0059                     	ds	4
  1314  005D                     ___fladd@a:
  1315                           
  1316                           ; 4 bytes @ 0x3D
  1317  005D                     	ds	4
  1318  0061                     ??___fladd:
  1319                           
  1320                           ; 1 bytes @ 0x41
  1321  0061                     	ds	8
  1322  0069                     ___fladd@signs:
  1323                           
  1324                           ; 1 bytes @ 0x49
  1325  0069                     	ds	1
  1326  006A                     ___fladd@aexp:
  1327                           
  1328                           ; 1 bytes @ 0x4A
  1329  006A                     	ds	1
  1330  006B                     ___fladd@bexp:
  1331                           
  1332                           ; 1 bytes @ 0x4B
  1333  006B                     	ds	1
  1334  006C                     ___fladd@grs:
  1335                           
  1336                           ; 1 bytes @ 0x4C
  1337  006C                     	ds	1
  1338  006D                     ??_log:
  1339                           
  1340                           ; 1 bytes @ 0x4D
  1341  006D                     	ds	1
  1342                           
  1343                           	psect	maintext
  1344  041B                     __pmaintext:	
  1345 ;;
  1346 ;;Main: autosize = 0, tempsize = 3, incstack = 0, save=0
  1347 ;;
  1348 ;; *************** function _main *****************
  1349 ;; Defined at:
  1350 ;;		line 37 in file "main.c"
  1351 ;; Parameters:    Size  Location     Type
  1352 ;;		None
  1353 ;; Auto vars:     Size  Location     Type
  1354 ;;  Valor_Temper    4   41[BANK1 ] float 
  1355 ;;  Porcentaje_H    4   25[BANK1 ] float 
  1356 ;; Return value:  Size  Location     Type
  1357 ;;                  1    wreg      void 
  1358 ;; Registers used:
  1359 ;;		wreg, fsr0l, fsr0h, status,2, status,0, btemp+1, pclath, cstack
  1360 ;; Tracked objects:
  1361 ;;		On entry : B00/0
  1362 ;;		On exit  : 0/0
  1363 ;;		Unchanged: 0/0
  1364 ;; Data sizes:     COMMON   BANK0   BANK1   BANK3   BANK2
  1365 ;;      Params:         0       0       0       0       0
  1366 ;;      Locals:         0       0      20       0       0
  1367 ;;      Temps:          0       0       3       0       0
  1368 ;;      Totals:         0       0      23       0       0
  1369 ;;Total ram usage:       23 bytes
  1370 ;; Hardware stack levels required when called: 4
  1371 ;; This function calls:
  1372 ;;		_ADC_Init
  1373 ;;		_ADC_Read
  1374 ;;		_LCD_Clear
  1375 ;;		_LCD_Command
  1376 ;;		_LCD_Init
  1377 ;;		_LCD_String_xy
  1378 ;;		_USART_Init
  1379 ;;		_USART_SendString
  1380 ;;		___fladd
  1381 ;;		___fldiv
  1382 ;;		___flge
  1383 ;;		___flmul
  1384 ;;		___fltol
  1385 ;;		___xxtofl
  1386 ;;		_log
  1387 ;;		_sprintf
  1388 ;;		_strcat
  1389 ;;		_strcpy
  1390 ;; This function is called by:
  1391 ;;		Startup code after reset
  1392 ;; This function uses a non-reentrant model
  1393 ;;
  1394                           
  1395  041B                     _main:	
  1396                           ;psect for function _main
  1397                           
  1398  041B                     l3078:	
  1399                           ;incstack = 0
  1400                           ; Regs used in _main: [wreg-fsr0h+status,2+status,0+btemp+1+pclath+cstack]
  1401                           
  1402                           
  1403                           ;main.c: 39:     OSCCON = 0x71;
  1404  041B  3071               	movlw	113
  1405  041C  1683               	bsf	3,5	;RP0=1, select bank1
  1406  041D  1303               	bcf	3,6	;RP1=0, select bank1
  1407  041E  008F               	movwf	15	;volatile
  1408  041F                     l3080:
  1409                           
  1410                           ;main.c: 40:     TRISE = 0x00;
  1411  041F  0189               	clrf	9	;volatile
  1412  0420                     l3082:
  1413                           
  1414                           ;main.c: 41:     ANSEL = 0x07;
  1415  0420  3007               	movlw	7
  1416  0421  1683               	bsf	3,5	;RP0=1, select bank3
  1417  0422  1703               	bsf	3,6	;RP1=1, select bank3
  1418  0423  0088               	movwf	8	;volatile
  1419  0424                     l3084:
  1420                           
  1421                           ;main.c: 42:     USART_Init(9600);
  1422  0424  3000               	movlw	0
  1423  0425  1283               	bcf	3,5	;RP0=0, select bank0
  1424  0426  1303               	bcf	3,6	;RP1=0, select bank0
  1425  0427  00A9               	movwf	USART_Init@baud_rate+3
  1426  0428  3000               	movlw	0
  1427  0429  00A8               	movwf	USART_Init@baud_rate+2
  1428  042A  3025               	movlw	37
  1429  042B  00A7               	movwf	USART_Init@baud_rate+1
  1430  042C  3080               	movlw	128
  1431  042D  00A6               	movwf	USART_Init@baud_rate
  1432  042E  160A  118A  24FD  120A  118A  	fcall	_USART_Init
  1433  0433                     l3086:
  1434                           
  1435                           ;main.c: 45:     LCD_Init();
  1436  0433  160A  118A  23BC  120A  118A  	fcall	_LCD_Init
  1437  0438                     l3088:
  1438                           
  1439                           ;main.c: 46:     ADC_Init();
  1440  0438  120A  118A  2003  120A  118A  	fcall	_ADC_Init
  1441  043D                     l3090:
  1442                           
  1443                           ;main.c: 47:     _delay((unsigned long)((5000)*(8000000/4000.0)));
  1444  043D  3033               	movlw	51
  1445  043E  1683               	bsf	3,5	;RP0=1, select bank1
  1446  043F  1303               	bcf	3,6	;RP1=0, select bank1
  1447  0440  00B8               	movwf	(??_main^(0+128)+2)
  1448  0441  30BB               	movlw	187
  1449  0442  00B7               	movwf	(??_main^(0+128)+1)
  1450  0443  30DF               	movlw	223
  1451  0444  00B6               	movwf	??_main^(0+128)
  1452  0445                     u4517:
  1453  0445  0BB6               	decfsz	??_main^(0+128),f
  1454  0446  2C45               	goto	u4517
  1455  0447  0BB7               	decfsz	(??_main^(0+128)+1),f
  1456  0448  2C45               	goto	u4517
  1457  0449  0BB8               	decfsz	(??_main^(0+128)+2),f
  1458  044A  2C45               	goto	u4517
  1459  044B                     l3092:
  1460                           
  1461                           ;main.c: 48:     LCD_Command(0xC0);
  1462  044B  30C0               	movlw	192
  1463  044C  160A  118A  241A  120A  118A  	fcall	_LCD_Command
  1464  0451                     l3094:
  1465                           
  1466                           ;main.c: 53:        Sensor_Temperatura = 1023 - ADC_Read(0);
  1467  0451  3000               	movlw	0
  1468  0452  00F0               	movwf	ADC_Read@channel
  1469  0453  00F1               	movwf	ADC_Read@channel+1
  1470  0454  160A  118A  24C0  120A  118A  	fcall	_ADC_Read
  1471  0459  30FF               	movlw	255
  1472  045A  1683               	bsf	3,5	;RP0=1, select bank1
  1473  045B  1303               	bcf	3,6	;RP1=0, select bank1
  1474  045C  00B6               	movwf	??_main^(0+128)
  1475  045D  3003               	movlw	3
  1476  045E  00B7               	movwf	(??_main^(0+128)+1)
  1477  045F  0870               	movf	?_ADC_Read,w
  1478  0460  0236               	subwf	??_main^(0+128),w
  1479  0461  00D7               	movwf	_Sensor_Temperatura^(0+128)
  1480  0462  0871               	movf	?_ADC_Read+1,w
  1481  0463  1C03               	skipc
  1482  0464  0A71               	incf	?_ADC_Read+1,w
  1483  0465  0237               	subwf	(??_main+1)^(0+128),w
  1484  0466  00D8               	movwf	(_Sensor_Temperatura+1)^(0+128)
  1485  0467  01D9               	clrf	(_Sensor_Temperatura^(0+128)+2)
  1486  0468  1BD8               	btfsc	(_Sensor_Temperatura^(0+128)+1),7
  1487  0469  03D9               	decf	(_Sensor_Temperatura+2)^(0+128),f
  1488  046A  0859               	movf	(_Sensor_Temperatura^(0+128)+2),w
  1489  046B  00DA               	movwf	(_Sensor_Temperatura+3)^(0+128)
  1490  046C                     l3096:
  1491                           
  1492                           ;main.c: 54:         _delay((unsigned long)((500)*(8000000/4000.0)));
  1493  046C  3006               	movlw	6
  1494  046D  1683               	bsf	3,5	;RP0=1, select bank1
  1495  046E  1303               	bcf	3,6	;RP1=0, select bank1
  1496  046F  00B8               	movwf	(??_main^(0+128)+2)
  1497  0470  3013               	movlw	19
  1498  0471  00B7               	movwf	(??_main^(0+128)+1)
  1499  0472  30AD               	movlw	173
  1500  0473  00B6               	movwf	??_main^(0+128)
  1501  0474                     u4527:
  1502  0474  0BB6               	decfsz	??_main^(0+128),f
  1503  0475  2C74               	goto	u4527
  1504  0476  0BB7               	decfsz	(??_main^(0+128)+1),f
  1505  0477  2C74               	goto	u4527
  1506  0478  0BB8               	decfsz	(??_main^(0+128)+2),f
  1507  0479  2C74               	goto	u4527
  1508  047A                     l3098:
  1509                           
  1510                           ;main.c: 55:        Sensor_Humedad = ADC_Read(1);
  1511  047A  3001               	movlw	1
  1512  047B  00F0               	movwf	ADC_Read@channel
  1513  047C  3000               	movlw	0
  1514  047D  00F1               	movwf	ADC_Read@channel+1
  1515  047E  160A  118A  24C0  120A  118A  	fcall	_ADC_Read
  1516  0483  0870               	movf	?_ADC_Read,w
  1517  0484  1683               	bsf	3,5	;RP0=1, select bank1
  1518  0485  1303               	bcf	3,6	;RP1=0, select bank1
  1519  0486  00D3               	movwf	_Sensor_Humedad^(0+128)
  1520  0487  0871               	movf	?_ADC_Read+1,w
  1521  0488  00D4               	movwf	(_Sensor_Humedad+1)^(0+128)
  1522  0489  3000               	movlw	0
  1523  048A  1BD4               	btfsc	(_Sensor_Humedad+1)^(0+128),7
  1524  048B  30FF               	movlw	255
  1525  048C  00D5               	movwf	(_Sensor_Humedad+2)^(0+128)
  1526  048D  00D6               	movwf	(_Sensor_Humedad+3)^(0+128)
  1527  048E                     l3100:
  1528                           
  1529                           ;main.c: 56:         _delay((unsigned long)((500)*(8000000/4000.0)));
  1530  048E  3006               	movlw	6
  1531  048F  1683               	bsf	3,5	;RP0=1, select bank1
  1532  0490  1303               	bcf	3,6	;RP1=0, select bank1
  1533  0491  00B8               	movwf	(??_main^(0+128)+2)
  1534  0492  3013               	movlw	19
  1535  0493  00B7               	movwf	(??_main^(0+128)+1)
  1536  0494  30AD               	movlw	173
  1537  0495  00B6               	movwf	??_main^(0+128)
  1538  0496                     u4537:
  1539  0496  0BB6               	decfsz	??_main^(0+128),f
  1540  0497  2C96               	goto	u4537
  1541  0498  0BB7               	decfsz	(??_main^(0+128)+1),f
  1542  0499  2C96               	goto	u4537
  1543  049A  0BB8               	decfsz	(??_main^(0+128)+2),f
  1544  049B  2C96               	goto	u4537
  1545  049C                     l3102:
  1546                           
  1547                           ;main.c: 57:        Sensor_Luz = ADC_Read(2);
  1548  049C  3002               	movlw	2
  1549  049D  00F0               	movwf	ADC_Read@channel
  1550  049E  3000               	movlw	0
  1551  049F  00F1               	movwf	ADC_Read@channel+1
  1552  04A0  160A  118A  24C0  120A  118A  	fcall	_ADC_Read
  1553  04A5  0870               	movf	?_ADC_Read,w
  1554  04A6  1683               	bsf	3,5	;RP0=1, select bank1
  1555  04A7  1303               	bcf	3,6	;RP1=0, select bank1
  1556  04A8  00CD               	movwf	_Sensor_Luz^(0+128)
  1557  04A9  0871               	movf	?_ADC_Read+1,w
  1558  04AA  00CE               	movwf	(_Sensor_Luz+1)^(0+128)
  1559  04AB  3000               	movlw	0
  1560  04AC  1BCE               	btfsc	(_Sensor_Luz+1)^(0+128),7
  1561  04AD  30FF               	movlw	255
  1562  04AE  00CF               	movwf	(_Sensor_Luz+2)^(0+128)
  1563  04AF  00D0               	movwf	(_Sensor_Luz+3)^(0+128)
  1564  04B0                     l3104:
  1565                           
  1566                           ;main.c: 58:        _delay((unsigned long)((500)*(8000000/4000.0)));
  1567  04B0  3006               	movlw	6
  1568  04B1  1683               	bsf	3,5	;RP0=1, select bank1
  1569  04B2  1303               	bcf	3,6	;RP1=0, select bank1
  1570  04B3  00B8               	movwf	(??_main^(0+128)+2)
  1571  04B4  3013               	movlw	19
  1572  04B5  00B7               	movwf	(??_main^(0+128)+1)
  1573  04B6  30AD               	movlw	173
  1574  04B7  00B6               	movwf	??_main^(0+128)
  1575  04B8                     u4547:
  1576  04B8  0BB6               	decfsz	??_main^(0+128),f
  1577  04B9  2CB8               	goto	u4547
  1578  04BA  0BB7               	decfsz	(??_main^(0+128)+1),f
  1579  04BB  2CB8               	goto	u4547
  1580  04BC  0BB8               	decfsz	(??_main^(0+128)+2),f
  1581  04BD  2CB8               	goto	u4547
  1582  04BE                     l3106:
  1583                           
  1584                           ;main.c: 62:         float Valor_Temperatura = (float) (4090 /(log((1025.0 * 10 / Sensor
      +                          _Temperatura - 10) / 10) + 4090 / 298.0) - 273.0);
  1585  04BE  30C1               	movlw	193
  1586  04BF  1283               	bcf	3,5	;RP0=0, select bank0
  1587  04C0  1303               	bcf	3,6	;RP1=0, select bank0
  1588  04C1  00DC               	movwf	___fladd@b+3
  1589  04C2  3020               	movlw	32
  1590  04C3  00DB               	movwf	___fladd@b+2
  1591  04C4  3000               	movlw	0
  1592  04C5  00DA               	movwf	___fladd@b+1
  1593  04C6  3000               	movlw	0
  1594  04C7  00D9               	movwf	___fladd@b
  1595  04C8  1683               	bsf	3,5	;RP0=1, select bank1
  1596  04C9  1303               	bcf	3,6	;RP1=0, select bank1
  1597  04CA  085A               	movf	(_Sensor_Temperatura+3)^(0+128),w
  1598  04CB  00F3               	movwf	___xxtofl@val+3
  1599  04CC  0859               	movf	(_Sensor_Temperatura+2)^(0+128),w
  1600  04CD  00F2               	movwf	___xxtofl@val+2
  1601  04CE  0858               	movf	(_Sensor_Temperatura+1)^(0+128),w
  1602  04CF  00F1               	movwf	___xxtofl@val+1
  1603  04D0  0857               	movf	_Sensor_Temperatura^(0+128),w
  1604  04D1  00F0               	movwf	___xxtofl@val
  1605  04D2  3001               	movlw	1
  1606  04D3  160A  118A  2746  120A  118A  	fcall	___xxtofl
  1607  04D8  0873               	movf	?___xxtofl+3,w
  1608  04D9  1283               	bcf	3,5	;RP0=0, select bank0
  1609  04DA  1303               	bcf	3,6	;RP1=0, select bank0
  1610  04DB  00C2               	movwf	___fldiv@a+3
  1611  04DC  0872               	movf	?___xxtofl+2,w
  1612  04DD  00C1               	movwf	___fldiv@a+2
  1613  04DE  0871               	movf	?___xxtofl+1,w
  1614  04DF  00C0               	movwf	___fldiv@a+1
  1615  04E0  0870               	movf	?___xxtofl,w
  1616  04E1  00BF               	movwf	___fldiv@a
  1617  04E2  3046               	movlw	70
  1618  04E3  00C6               	movwf	___fldiv@b+3
  1619  04E4  3020               	movlw	32
  1620  04E5  00C5               	movwf	___fldiv@b+2
  1621  04E6  3028               	movlw	40
  1622  04E7  00C4               	movwf	___fldiv@b+1
  1623  04E8  3000               	movlw	0
  1624  04E9  00C3               	movwf	___fldiv@b
  1625  04EA  120A  158A  239B  120A  118A  	fcall	___fldiv
  1626  04EF  1283               	bcf	3,5	;RP0=0, select bank0
  1627  04F0  1303               	bcf	3,6	;RP1=0, select bank0
  1628  04F1  0842               	movf	?___fldiv+3,w
  1629  04F2  00E0               	movwf	___fladd@a+3
  1630  04F3  0841               	movf	?___fldiv+2,w
  1631  04F4  00DF               	movwf	___fladd@a+2
  1632  04F5  0840               	movf	?___fldiv+1,w
  1633  04F6  00DE               	movwf	___fladd@a+1
  1634  04F7  083F               	movf	?___fldiv,w
  1635  04F8  00DD               	movwf	___fladd@a
  1636  04F9  120A  158A  2578  120A  118A  	fcall	___fladd
  1637  04FE  1283               	bcf	3,5	;RP0=0, select bank0
  1638  04FF  1303               	bcf	3,6	;RP1=0, select bank0
  1639  0500  085C               	movf	?___fladd+3,w
  1640  0501  1683               	bsf	3,5	;RP0=1, select bank1
  1641  0502  1303               	bcf	3,6	;RP1=0, select bank1
  1642  0503  00C0               	movwf	(_main$1091+3)^(0+128)
  1643  0504  1283               	bcf	3,5	;RP0=0, select bank0
  1644  0505  1303               	bcf	3,6	;RP1=0, select bank0
  1645  0506  085B               	movf	?___fladd+2,w
  1646  0507  1683               	bsf	3,5	;RP0=1, select bank1
  1647  0508  1303               	bcf	3,6	;RP1=0, select bank1
  1648  0509  00BF               	movwf	(_main$1091+2)^(0+128)
  1649  050A  1283               	bcf	3,5	;RP0=0, select bank0
  1650  050B  1303               	bcf	3,6	;RP1=0, select bank0
  1651  050C  085A               	movf	?___fladd+1,w
  1652  050D  1683               	bsf	3,5	;RP0=1, select bank1
  1653  050E  1303               	bcf	3,6	;RP1=0, select bank1
  1654  050F  00BE               	movwf	(_main$1091+1)^(0+128)
  1655  0510  1283               	bcf	3,5	;RP0=0, select bank0
  1656  0511  1303               	bcf	3,6	;RP1=0, select bank0
  1657  0512  0859               	movf	?___fladd,w
  1658  0513  1683               	bsf	3,5	;RP0=1, select bank1
  1659  0514  1303               	bcf	3,6	;RP1=0, select bank1
  1660  0515  00BD               	movwf	_main$1091^(0+128)
  1661  0516                     l3108:
  1662                           
  1663                           ;main.c: 62:         float Valor_Temperatura = (float) (4090 /(log((1025.0 * 10 / Sensor
      +                          _Temperatura - 10) / 10) + 4090 / 298.0) - 273.0);
  1664  0516  3041               	movlw	65
  1665  0517  1283               	bcf	3,5	;RP0=0, select bank0
  1666  0518  1303               	bcf	3,6	;RP1=0, select bank0
  1667  0519  00C2               	movwf	___fldiv@a+3
  1668  051A  3020               	movlw	32
  1669  051B  00C1               	movwf	___fldiv@a+2
  1670  051C  3000               	movlw	0
  1671  051D  00C0               	movwf	___fldiv@a+1
  1672  051E  3000               	movlw	0
  1673  051F  00BF               	movwf	___fldiv@a
  1674  0520  1683               	bsf	3,5	;RP0=1, select bank1
  1675  0521  1303               	bcf	3,6	;RP1=0, select bank1
  1676  0522  0840               	movf	(_main$1091+3)^(0+128),w
  1677  0523  1283               	bcf	3,5	;RP0=0, select bank0
  1678  0524  1303               	bcf	3,6	;RP1=0, select bank0
  1679  0525  00C6               	movwf	___fldiv@b+3
  1680  0526  1683               	bsf	3,5	;RP0=1, select bank1
  1681  0527  1303               	bcf	3,6	;RP1=0, select bank1
  1682  0528  083F               	movf	(_main$1091+2)^(0+128),w
  1683  0529  1283               	bcf	3,5	;RP0=0, select bank0
  1684  052A  1303               	bcf	3,6	;RP1=0, select bank0
  1685  052B  00C5               	movwf	___fldiv@b+2
  1686  052C  1683               	bsf	3,5	;RP0=1, select bank1
  1687  052D  1303               	bcf	3,6	;RP1=0, select bank1
  1688  052E  083E               	movf	(_main$1091+1)^(0+128),w
  1689  052F  1283               	bcf	3,5	;RP0=0, select bank0
  1690  0530  1303               	bcf	3,6	;RP1=0, select bank0
  1691  0531  00C4               	movwf	___fldiv@b+1
  1692  0532  1683               	bsf	3,5	;RP0=1, select bank1
  1693  0533  1303               	bcf	3,6	;RP1=0, select bank1
  1694  0534  083D               	movf	_main$1091^(0+128),w
  1695  0535  1283               	bcf	3,5	;RP0=0, select bank0
  1696  0536  1303               	bcf	3,6	;RP1=0, select bank0
  1697  0537  00C3               	movwf	___fldiv@b
  1698  0538  120A  158A  239B  120A  118A  	fcall	___fldiv
  1699  053D  1283               	bcf	3,5	;RP0=0, select bank0
  1700  053E  1303               	bcf	3,6	;RP1=0, select bank0
  1701  053F  0842               	movf	?___fldiv+3,w
  1702  0540  1683               	bsf	3,5	;RP0=1, select bank1
  1703  0541  1303               	bcf	3,6	;RP1=0, select bank1
  1704  0542  00B3               	movwf	(log@x+3)^(0+128)
  1705  0543  1283               	bcf	3,5	;RP0=0, select bank0
  1706  0544  1303               	bcf	3,6	;RP1=0, select bank0
  1707  0545  0841               	movf	?___fldiv+2,w
  1708  0546  1683               	bsf	3,5	;RP0=1, select bank1
  1709  0547  1303               	bcf	3,6	;RP1=0, select bank1
  1710  0548  00B2               	movwf	(log@x+2)^(0+128)
  1711  0549  1283               	bcf	3,5	;RP0=0, select bank0
  1712  054A  1303               	bcf	3,6	;RP1=0, select bank0
  1713  054B  0840               	movf	?___fldiv+1,w
  1714  054C  1683               	bsf	3,5	;RP0=1, select bank1
  1715  054D  1303               	bcf	3,6	;RP1=0, select bank1
  1716  054E  00B1               	movwf	(log@x+1)^(0+128)
  1717  054F  1283               	bcf	3,5	;RP0=0, select bank0
  1718  0550  1303               	bcf	3,6	;RP1=0, select bank0
  1719  0551  083F               	movf	?___fldiv,w
  1720  0552  1683               	bsf	3,5	;RP0=1, select bank1
  1721  0553  1303               	bcf	3,6	;RP1=0, select bank1
  1722  0554  00B0               	movwf	log@x^(0+128)
  1723  0555  120A  158A  224F  120A  118A  	fcall	_log
  1724  055A  1683               	bsf	3,5	;RP0=1, select bank1
  1725  055B  1303               	bcf	3,6	;RP1=0, select bank1
  1726  055C  0833               	movf	(?_log+3)^(0+128),w
  1727  055D  00C4               	movwf	(_main$1092+3)^(0+128)
  1728  055E  0832               	movf	(?_log+2)^(0+128),w
  1729  055F  00C3               	movwf	(_main$1092+2)^(0+128)
  1730  0560  0831               	movf	(?_log+1)^(0+128),w
  1731  0561  00C2               	movwf	(_main$1092+1)^(0+128)
  1732  0562  0830               	movf	?_log^(0+128),w
  1733  0563  00C1               	movwf	_main$1092^(0+128)
  1734  0564                     l3110:
  1735                           
  1736                           ;main.c: 62:         float Valor_Temperatura = (float) (4090 /(log((1025.0 * 10 / Sensor
      +                          _Temperatura - 10) / 10) + 4090 / 298.0) - 273.0);
  1737  0564  3041               	movlw	65
  1738  0565  1283               	bcf	3,5	;RP0=0, select bank0
  1739  0566  1303               	bcf	3,6	;RP1=0, select bank0
  1740  0567  00DC               	movwf	___fladd@b+3
  1741  0568  305B               	movlw	91
  1742  0569  00DB               	movwf	___fladd@b+2
  1743  056A  3098               	movlw	152
  1744  056B  00DA               	movwf	___fladd@b+1
  1745  056C  30EA               	movlw	234
  1746  056D  00D9               	movwf	___fladd@b
  1747  056E  1683               	bsf	3,5	;RP0=1, select bank1
  1748  056F  1303               	bcf	3,6	;RP1=0, select bank1
  1749  0570  0844               	movf	(_main$1092+3)^(0+128),w
  1750  0571  1283               	bcf	3,5	;RP0=0, select bank0
  1751  0572  1303               	bcf	3,6	;RP1=0, select bank0
  1752  0573  00E0               	movwf	___fladd@a+3
  1753  0574  1683               	bsf	3,5	;RP0=1, select bank1
  1754  0575  1303               	bcf	3,6	;RP1=0, select bank1
  1755  0576  0843               	movf	(_main$1092+2)^(0+128),w
  1756  0577  1283               	bcf	3,5	;RP0=0, select bank0
  1757  0578  1303               	bcf	3,6	;RP1=0, select bank0
  1758  0579  00DF               	movwf	___fladd@a+2
  1759  057A  1683               	bsf	3,5	;RP0=1, select bank1
  1760  057B  1303               	bcf	3,6	;RP1=0, select bank1
  1761  057C  0842               	movf	(_main$1092+1)^(0+128),w
  1762  057D  1283               	bcf	3,5	;RP0=0, select bank0
  1763  057E  1303               	bcf	3,6	;RP1=0, select bank0
  1764  057F  00DE               	movwf	___fladd@a+1
  1765  0580  1683               	bsf	3,5	;RP0=1, select bank1
  1766  0581  1303               	bcf	3,6	;RP1=0, select bank1
  1767  0582  0841               	movf	_main$1092^(0+128),w
  1768  0583  1283               	bcf	3,5	;RP0=0, select bank0
  1769  0584  1303               	bcf	3,6	;RP1=0, select bank0
  1770  0585  00DD               	movwf	___fladd@a
  1771  0586  120A  158A  2578  120A  118A  	fcall	___fladd
  1772  058B  1283               	bcf	3,5	;RP0=0, select bank0
  1773  058C  1303               	bcf	3,6	;RP1=0, select bank0
  1774  058D  085C               	movf	?___fladd+3,w
  1775  058E  00C2               	movwf	___fldiv@a+3
  1776  058F  085B               	movf	?___fladd+2,w
  1777  0590  00C1               	movwf	___fldiv@a+2
  1778  0591  085A               	movf	?___fladd+1,w
  1779  0592  00C0               	movwf	___fldiv@a+1
  1780  0593  0859               	movf	?___fladd,w
  1781  0594  00BF               	movwf	___fldiv@a
  1782  0595  3045               	movlw	69
  1783  0596  00C6               	movwf	___fldiv@b+3
  1784  0597  307F               	movlw	127
  1785  0598  00C5               	movwf	___fldiv@b+2
  1786  0599  30A0               	movlw	160
  1787  059A  00C4               	movwf	___fldiv@b+1
  1788  059B  3000               	movlw	0
  1789  059C  00C3               	movwf	___fldiv@b
  1790  059D  120A  158A  239B  120A  118A  	fcall	___fldiv
  1791  05A2  1283               	bcf	3,5	;RP0=0, select bank0
  1792  05A3  1303               	bcf	3,6	;RP1=0, select bank0
  1793  05A4  0842               	movf	?___fldiv+3,w
  1794  05A5  1683               	bsf	3,5	;RP0=1, select bank1
  1795  05A6  1303               	bcf	3,6	;RP1=0, select bank1
  1796  05A7  00C8               	movwf	(_main$1093+3)^(0+128)
  1797  05A8  1283               	bcf	3,5	;RP0=0, select bank0
  1798  05A9  1303               	bcf	3,6	;RP1=0, select bank0
  1799  05AA  0841               	movf	?___fldiv+2,w
  1800  05AB  1683               	bsf	3,5	;RP0=1, select bank1
  1801  05AC  1303               	bcf	3,6	;RP1=0, select bank1
  1802  05AD  00C7               	movwf	(_main$1093+2)^(0+128)
  1803  05AE  1283               	bcf	3,5	;RP0=0, select bank0
  1804  05AF  1303               	bcf	3,6	;RP1=0, select bank0
  1805  05B0  0840               	movf	?___fldiv+1,w
  1806  05B1  1683               	bsf	3,5	;RP0=1, select bank1
  1807  05B2  1303               	bcf	3,6	;RP1=0, select bank1
  1808  05B3  00C6               	movwf	(_main$1093+1)^(0+128)
  1809  05B4  1283               	bcf	3,5	;RP0=0, select bank0
  1810  05B5  1303               	bcf	3,6	;RP1=0, select bank0
  1811  05B6  083F               	movf	?___fldiv,w
  1812  05B7  1683               	bsf	3,5	;RP0=1, select bank1
  1813  05B8  1303               	bcf	3,6	;RP1=0, select bank1
  1814  05B9  00C5               	movwf	_main$1093^(0+128)
  1815  05BA                     l3112:
  1816                           
  1817                           ;main.c: 62:         float Valor_Temperatura = (float) (4090 /(log((1025.0 * 10 / Sensor
      +                          _Temperatura - 10) / 10) + 4090 / 298.0) - 273.0);
  1818  05BA  30C3               	movlw	195
  1819  05BB  1283               	bcf	3,5	;RP0=0, select bank0
  1820  05BC  1303               	bcf	3,6	;RP1=0, select bank0
  1821  05BD  00DC               	movwf	___fladd@b+3
  1822  05BE  3088               	movlw	136
  1823  05BF  00DB               	movwf	___fladd@b+2
  1824  05C0  3080               	movlw	128
  1825  05C1  00DA               	movwf	___fladd@b+1
  1826  05C2  3000               	movlw	0
  1827  05C3  00D9               	movwf	___fladd@b
  1828  05C4  1683               	bsf	3,5	;RP0=1, select bank1
  1829  05C5  1303               	bcf	3,6	;RP1=0, select bank1
  1830  05C6  0848               	movf	(_main$1093+3)^(0+128),w
  1831  05C7  1283               	bcf	3,5	;RP0=0, select bank0
  1832  05C8  1303               	bcf	3,6	;RP1=0, select bank0
  1833  05C9  00E0               	movwf	___fladd@a+3
  1834  05CA  1683               	bsf	3,5	;RP0=1, select bank1
  1835  05CB  1303               	bcf	3,6	;RP1=0, select bank1
  1836  05CC  0847               	movf	(_main$1093+2)^(0+128),w
  1837  05CD  1283               	bcf	3,5	;RP0=0, select bank0
  1838  05CE  1303               	bcf	3,6	;RP1=0, select bank0
  1839  05CF  00DF               	movwf	___fladd@a+2
  1840  05D0  1683               	bsf	3,5	;RP0=1, select bank1
  1841  05D1  1303               	bcf	3,6	;RP1=0, select bank1
  1842  05D2  0846               	movf	(_main$1093+1)^(0+128),w
  1843  05D3  1283               	bcf	3,5	;RP0=0, select bank0
  1844  05D4  1303               	bcf	3,6	;RP1=0, select bank0
  1845  05D5  00DE               	movwf	___fladd@a+1
  1846  05D6  1683               	bsf	3,5	;RP0=1, select bank1
  1847  05D7  1303               	bcf	3,6	;RP1=0, select bank1
  1848  05D8  0845               	movf	_main$1093^(0+128),w
  1849  05D9  1283               	bcf	3,5	;RP0=0, select bank0
  1850  05DA  1303               	bcf	3,6	;RP1=0, select bank0
  1851  05DB  00DD               	movwf	___fladd@a
  1852  05DC  120A  158A  2578  120A  118A  	fcall	___fladd
  1853  05E1  1283               	bcf	3,5	;RP0=0, select bank0
  1854  05E2  1303               	bcf	3,6	;RP1=0, select bank0
  1855  05E3  085C               	movf	?___fladd+3,w
  1856  05E4  1683               	bsf	3,5	;RP0=1, select bank1
  1857  05E5  1303               	bcf	3,6	;RP1=0, select bank1
  1858  05E6  00CC               	movwf	(main@Valor_Temperatura+3)^(0+128)
  1859  05E7  1283               	bcf	3,5	;RP0=0, select bank0
  1860  05E8  1303               	bcf	3,6	;RP1=0, select bank0
  1861  05E9  085B               	movf	?___fladd+2,w
  1862  05EA  1683               	bsf	3,5	;RP0=1, select bank1
  1863  05EB  1303               	bcf	3,6	;RP1=0, select bank1
  1864  05EC  00CB               	movwf	(main@Valor_Temperatura+2)^(0+128)
  1865  05ED  1283               	bcf	3,5	;RP0=0, select bank0
  1866  05EE  1303               	bcf	3,6	;RP1=0, select bank0
  1867  05EF  085A               	movf	?___fladd+1,w
  1868  05F0  1683               	bsf	3,5	;RP0=1, select bank1
  1869  05F1  1303               	bcf	3,6	;RP1=0, select bank1
  1870  05F2  00CA               	movwf	(main@Valor_Temperatura+1)^(0+128)
  1871  05F3  1283               	bcf	3,5	;RP0=0, select bank0
  1872  05F4  1303               	bcf	3,6	;RP1=0, select bank0
  1873  05F5  0859               	movf	?___fladd,w
  1874  05F6  1683               	bsf	3,5	;RP0=1, select bank1
  1875  05F7  1303               	bcf	3,6	;RP1=0, select bank1
  1876  05F8  00C9               	movwf	main@Valor_Temperatura^(0+128)
  1877  05F9                     l3114:
  1878                           
  1879                           ;main.c: 63:         float Porcentaje_Humedad = (-0.17 * Sensor_Humedad)+171.4;
  1880  05F9  3043               	movlw	67
  1881  05FA  1283               	bcf	3,5	;RP0=0, select bank0
  1882  05FB  1303               	bcf	3,6	;RP1=0, select bank0
  1883  05FC  00DC               	movwf	___fladd@b+3
  1884  05FD  302B               	movlw	43
  1885  05FE  00DB               	movwf	___fladd@b+2
  1886  05FF  3066               	movlw	102
  1887  0600  00DA               	movwf	___fladd@b+1
  1888  0601  3066               	movlw	102
  1889  0602  00D9               	movwf	___fladd@b
  1890  0603  30BE               	movlw	190
  1891  0604  00A8               	movwf	___flmul@b+3
  1892  0605  302E               	movlw	46
  1893  0606  00A7               	movwf	___flmul@b+2
  1894  0607  3014               	movlw	20
  1895  0608  00A6               	movwf	___flmul@b+1
  1896  0609  307B               	movlw	123
  1897  060A  00A5               	movwf	___flmul@b
  1898  060B  1683               	bsf	3,5	;RP0=1, select bank1
  1899  060C  1303               	bcf	3,6	;RP1=0, select bank1
  1900  060D  0856               	movf	(_Sensor_Humedad+3)^(0+128),w
  1901  060E  00F3               	movwf	___xxtofl@val+3
  1902  060F  0855               	movf	(_Sensor_Humedad+2)^(0+128),w
  1903  0610  00F2               	movwf	___xxtofl@val+2
  1904  0611  0854               	movf	(_Sensor_Humedad+1)^(0+128),w
  1905  0612  00F1               	movwf	___xxtofl@val+1
  1906  0613  0853               	movf	_Sensor_Humedad^(0+128),w
  1907  0614  00F0               	movwf	___xxtofl@val
  1908  0615  3001               	movlw	1
  1909  0616  160A  118A  2746  120A  118A  	fcall	___xxtofl
  1910  061B  0873               	movf	?___xxtofl+3,w
  1911  061C  1283               	bcf	3,5	;RP0=0, select bank0
  1912  061D  1303               	bcf	3,6	;RP1=0, select bank0
  1913  061E  00AC               	movwf	___flmul@a+3
  1914  061F  0872               	movf	?___xxtofl+2,w
  1915  0620  00AB               	movwf	___flmul@a+2
  1916  0621  0871               	movf	?___xxtofl+1,w
  1917  0622  00AA               	movwf	___flmul@a+1
  1918  0623  0870               	movf	?___xxtofl,w
  1919  0624  00A9               	movwf	___flmul@a
  1920  0625  120A  118A  20BA  120A  118A  	fcall	___flmul
  1921  062A  1283               	bcf	3,5	;RP0=0, select bank0
  1922  062B  1303               	bcf	3,6	;RP1=0, select bank0
  1923  062C  0828               	movf	?___flmul+3,w
  1924  062D  00E0               	movwf	___fladd@a+3
  1925  062E  0827               	movf	?___flmul+2,w
  1926  062F  00DF               	movwf	___fladd@a+2
  1927  0630  0826               	movf	?___flmul+1,w
  1928  0631  00DE               	movwf	___fladd@a+1
  1929  0632  0825               	movf	?___flmul,w
  1930  0633  00DD               	movwf	___fladd@a
  1931  0634  120A  158A  2578  120A  118A  	fcall	___fladd
  1932  0639  1283               	bcf	3,5	;RP0=0, select bank0
  1933  063A  1303               	bcf	3,6	;RP1=0, select bank0
  1934  063B  085C               	movf	?___fladd+3,w
  1935  063C  1683               	bsf	3,5	;RP0=1, select bank1
  1936  063D  1303               	bcf	3,6	;RP1=0, select bank1
  1937  063E  00BC               	movwf	(main@Porcentaje_Humedad+3)^(0+128)
  1938  063F  1283               	bcf	3,5	;RP0=0, select bank0
  1939  0640  1303               	bcf	3,6	;RP1=0, select bank0
  1940  0641  085B               	movf	?___fladd+2,w
  1941  0642  1683               	bsf	3,5	;RP0=1, select bank1
  1942  0643  1303               	bcf	3,6	;RP1=0, select bank1
  1943  0644  00BB               	movwf	(main@Porcentaje_Humedad+2)^(0+128)
  1944  0645  1283               	bcf	3,5	;RP0=0, select bank0
  1945  0646  1303               	bcf	3,6	;RP1=0, select bank0
  1946  0647  085A               	movf	?___fladd+1,w
  1947  0648  1683               	bsf	3,5	;RP0=1, select bank1
  1948  0649  1303               	bcf	3,6	;RP1=0, select bank1
  1949  064A  00BA               	movwf	(main@Porcentaje_Humedad+1)^(0+128)
  1950  064B  1283               	bcf	3,5	;RP0=0, select bank0
  1951  064C  1303               	bcf	3,6	;RP1=0, select bank0
  1952  064D  0859               	movf	?___fladd,w
  1953  064E  1683               	bsf	3,5	;RP0=1, select bank1
  1954  064F  1303               	bcf	3,6	;RP1=0, select bank1
  1955  0650  00B9               	movwf	main@Porcentaje_Humedad^(0+128)
  1956  0651                     l3116:
  1957                           
  1958                           ;main.c: 67:         strcpy(Fila1,"T: ");
  1959  0651  304B               	movlw	(low ((STR_1-__stringbase)| (0+32768)))& (0+255)
  1960  0652  00B6               	movwf	??_main^(0+128)
  1961  0653  0836               	movf	??_main^(0+128),w
  1962  0654  00F0               	movwf	strcpy@from
  1963  0655  30A0               	movlw	(low (_Fila1| (0+256)))& (0+255)
  1964  0656  160A  118A  234D  120A  118A  	fcall	_strcpy
  1965  065B                     l3118:
  1966                           
  1967                           ;main.c: 68:         sprintf(Temperatura,"%d%cC  ",(int) Valor_Temperatura ,0xdf);
  1968  065B  302F               	movlw	(low ((STR_2-__stringbase)| (0+32768)))& (0+255)
  1969  065C  1683               	bsf	3,5	;RP0=1, select bank1
  1970  065D  1303               	bcf	3,6	;RP1=0, select bank1
  1971  065E  00B6               	movwf	??_main^(0+128)
  1972  065F  0836               	movf	??_main^(0+128),w
  1973  0660  1283               	bcf	3,5	;RP0=0, select bank0
  1974  0661  1303               	bcf	3,6	;RP1=0, select bank0
  1975  0662  00A0               	movwf	sprintf@f
  1976  0663  1683               	bsf	3,5	;RP0=1, select bank1
  1977  0664  1303               	bcf	3,6	;RP1=0, select bank1
  1978  0665  084C               	movf	(main@Valor_Temperatura+3)^(0+128),w
  1979  0666  00F3               	movwf	___fltol@f1+3
  1980  0667  084B               	movf	(main@Valor_Temperatura+2)^(0+128),w
  1981  0668  00F2               	movwf	___fltol@f1+2
  1982  0669  084A               	movf	(main@Valor_Temperatura+1)^(0+128),w
  1983  066A  00F1               	movwf	___fltol@f1+1
  1984  066B  0849               	movf	main@Valor_Temperatura^(0+128),w
  1985  066C  00F0               	movwf	___fltol@f1
  1986  066D  160A  118A  262F  120A  118A  	fcall	___fltol
  1987  0672  0871               	movf	?___fltol+1,w
  1988  0673  1283               	bcf	3,5	;RP0=0, select bank0
  1989  0674  1303               	bcf	3,6	;RP1=0, select bank0
  1990  0675  00A2               	movwf	?_sprintf+2
  1991  0676  0870               	movf	?___fltol,w
  1992  0677  00A1               	movwf	?_sprintf+1
  1993  0678  30DF               	movlw	223
  1994  0679  00A3               	movwf	?_sprintf+3
  1995  067A  3000               	movlw	0
  1996  067B  00A4               	movwf	?_sprintf+4
  1997  067C  30DF               	movlw	(low (_Temperatura| 0))& (0+255)
  1998  067D  120A  158A  214C  120A  118A  	fcall	_sprintf
  1999  0682                     l3120:
  2000                           
  2001                           ;main.c: 69:         strcat(Fila1, Temperatura);
  2002  0682  30DF               	movlw	(low (_Temperatura| 0))& (0+255)
  2003  0683  00F0               	movwf	strcat@from
  2004  0684  3000               	movlw	0
  2005  0685  00F1               	movwf	strcat@from+1
  2006  0686  30A0               	movlw	(low (_Fila1| (0+256)))& (0+255)
  2007  0687  160A  118A  23E6  120A  118A  	fcall	_strcat
  2008  068C                     l3122:
  2009                           
  2010                           ;main.c: 70:          _delay((unsigned long)((500)*(8000000/4000.0)));
  2011  068C  3006               	movlw	6
  2012  068D  1683               	bsf	3,5	;RP0=1, select bank1
  2013  068E  1303               	bcf	3,6	;RP1=0, select bank1
  2014  068F  00B8               	movwf	(??_main^(0+128)+2)
  2015  0690  3013               	movlw	19
  2016  0691  00B7               	movwf	(??_main^(0+128)+1)
  2017  0692  30AD               	movlw	173
  2018  0693  00B6               	movwf	??_main^(0+128)
  2019  0694                     u4557:
  2020  0694  0BB6               	decfsz	??_main^(0+128),f
  2021  0695  2E94               	goto	u4557
  2022  0696  0BB7               	decfsz	(??_main^(0+128)+1),f
  2023  0697  2E94               	goto	u4557
  2024  0698  0BB8               	decfsz	(??_main^(0+128)+2),f
  2025  0699  2E94               	goto	u4557
  2026  069A                     l3124:
  2027                           
  2028                           ;main.c: 71:         strcat(Fila1,"H: ");
  2029  069A  3043               	movlw	(low ((STR_3-__stringbase)| (0+32768)))& (0+255)
  2030  069B  00F0               	movwf	strcat@from
  2031  069C  3080               	movlw	128
  2032  069D  00F1               	movwf	strcat@from+1
  2033  069E  30A0               	movlw	(low (_Fila1| (0+256)))& (0+255)
  2034  069F  160A  118A  23E6  120A  118A  	fcall	_strcat
  2035  06A4                     l3126:
  2036                           
  2037                           ;main.c: 72:         sprintf (Humedad,"%d%c  ", (int)Porcentaje_Humedad,0x25);
  2038  06A4  3037               	movlw	(low ((STR_4-__stringbase)| (0+32768)))& (0+255)
  2039  06A5  1683               	bsf	3,5	;RP0=1, select bank1
  2040  06A6  1303               	bcf	3,6	;RP1=0, select bank1
  2041  06A7  00B6               	movwf	??_main^(0+128)
  2042  06A8  0836               	movf	??_main^(0+128),w
  2043  06A9  1283               	bcf	3,5	;RP0=0, select bank0
  2044  06AA  1303               	bcf	3,6	;RP1=0, select bank0
  2045  06AB  00A0               	movwf	sprintf@f
  2046  06AC  1683               	bsf	3,5	;RP0=1, select bank1
  2047  06AD  1303               	bcf	3,6	;RP1=0, select bank1
  2048  06AE  083C               	movf	(main@Porcentaje_Humedad+3)^(0+128),w
  2049  06AF  00F3               	movwf	___fltol@f1+3
  2050  06B0  083B               	movf	(main@Porcentaje_Humedad+2)^(0+128),w
  2051  06B1  00F2               	movwf	___fltol@f1+2
  2052  06B2  083A               	movf	(main@Porcentaje_Humedad+1)^(0+128),w
  2053  06B3  00F1               	movwf	___fltol@f1+1
  2054  06B4  0839               	movf	main@Porcentaje_Humedad^(0+128),w
  2055  06B5  00F0               	movwf	___fltol@f1
  2056  06B6  160A  118A  262F  120A  118A  	fcall	___fltol
  2057  06BB  0871               	movf	?___fltol+1,w
  2058  06BC  1283               	bcf	3,5	;RP0=0, select bank0
  2059  06BD  1303               	bcf	3,6	;RP1=0, select bank0
  2060  06BE  00A2               	movwf	?_sprintf+2
  2061  06BF  0870               	movf	?___fltol,w
  2062  06C0  00A1               	movwf	?_sprintf+1
  2063  06C1  3025               	movlw	37
  2064  06C2  00A3               	movwf	?_sprintf+3
  2065  06C3  3000               	movlw	0
  2066  06C4  00A4               	movwf	?_sprintf+4
  2067  06C5  30DB               	movlw	(low (_Humedad| 0))& (0+255)
  2068  06C6  120A  158A  214C  120A  118A  	fcall	_sprintf
  2069  06CB                     l3128:
  2070                           
  2071                           ;main.c: 73:         strcat(Fila1,Humedad);
  2072  06CB  30DB               	movlw	(low (_Humedad| 0))& (0+255)
  2073  06CC  00F0               	movwf	strcat@from
  2074  06CD  3000               	movlw	0
  2075  06CE  00F1               	movwf	strcat@from+1
  2076  06CF  30A0               	movlw	(low (_Fila1| (0+256)))& (0+255)
  2077  06D0  160A  118A  23E6  120A  118A  	fcall	_strcat
  2078  06D5                     l3130:
  2079                           
  2080                           ;main.c: 74:         _delay((unsigned long)((500)*(8000000/4000.0)));
  2081  06D5  3006               	movlw	6
  2082  06D6  1683               	bsf	3,5	;RP0=1, select bank1
  2083  06D7  1303               	bcf	3,6	;RP1=0, select bank1
  2084  06D8  00B8               	movwf	(??_main^(0+128)+2)
  2085  06D9  3013               	movlw	19
  2086  06DA  00B7               	movwf	(??_main^(0+128)+1)
  2087  06DB  30AD               	movlw	173
  2088  06DC  00B6               	movwf	??_main^(0+128)
  2089  06DD                     u4567:
  2090  06DD  0BB6               	decfsz	??_main^(0+128),f
  2091  06DE  2EDD               	goto	u4567
  2092  06DF  0BB7               	decfsz	(??_main^(0+128)+1),f
  2093  06E0  2EDD               	goto	u4567
  2094  06E1  0BB8               	decfsz	(??_main^(0+128)+2),f
  2095  06E2  2EDD               	goto	u4567
  2096  06E3                     l3132:
  2097                           
  2098                           ;main.c: 75:         LCD_String_xy(0,0,Fila1);
  2099  06E3  01F5               	clrf	LCD_String_xy@pos
  2100  06E4  30A0               	movlw	(low (_Fila1| (0+256)))& (0+255)
  2101  06E5  1683               	bsf	3,5	;RP0=1, select bank1
  2102  06E6  1303               	bcf	3,6	;RP1=0, select bank1
  2103  06E7  00B6               	movwf	??_main^(0+128)
  2104  06E8  0836               	movf	??_main^(0+128),w
  2105  06E9  00F6               	movwf	LCD_String_xy@msg
  2106  06EA  3000               	movlw	0
  2107  06EB  160A  118A  236E  120A  118A  	fcall	_LCD_String_xy
  2108  06F0                     l3134:
  2109                           
  2110                           ;main.c: 76:         strcpy(Fila2, "L: ");
  2111  06F0  3047               	movlw	(low ((STR_5-__stringbase)| (0+32768)))& (0+255)
  2112  06F1  1683               	bsf	3,5	;RP0=1, select bank1
  2113  06F2  1303               	bcf	3,6	;RP1=0, select bank1
  2114  06F3  00B6               	movwf	??_main^(0+128)
  2115  06F4  0836               	movf	??_main^(0+128),w
  2116  06F5  00F0               	movwf	strcpy@from
  2117  06F6  3090               	movlw	(low (_Fila2| (0+256)))& (0+255)
  2118  06F7  160A  118A  234D  120A  118A  	fcall	_strcpy
  2119  06FC                     l3136:
  2120                           
  2121                           ;main.c: 77:         sprintf (Luz, "%d  ", (int)(Sensor_Luz));
  2122  06FC  303E               	movlw	(low ((STR_6-__stringbase)| (0+32768)))& (0+255)
  2123  06FD  1683               	bsf	3,5	;RP0=1, select bank1
  2124  06FE  1303               	bcf	3,6	;RP1=0, select bank1
  2125  06FF  00B6               	movwf	??_main^(0+128)
  2126  0700  0836               	movf	??_main^(0+128),w
  2127  0701  1283               	bcf	3,5	;RP0=0, select bank0
  2128  0702  1303               	bcf	3,6	;RP1=0, select bank0
  2129  0703  00A0               	movwf	sprintf@f
  2130  0704  1683               	bsf	3,5	;RP0=1, select bank1
  2131  0705  1303               	bcf	3,6	;RP1=0, select bank1
  2132  0706  084E               	movf	(_Sensor_Luz+1)^(0+128),w
  2133  0707  1283               	bcf	3,5	;RP0=0, select bank0
  2134  0708  1303               	bcf	3,6	;RP1=0, select bank0
  2135  0709  00A2               	movwf	?_sprintf+2
  2136  070A  1683               	bsf	3,5	;RP0=1, select bank1
  2137  070B  1303               	bcf	3,6	;RP1=0, select bank1
  2138  070C  084D               	movf	_Sensor_Luz^(0+128),w
  2139  070D  1283               	bcf	3,5	;RP0=0, select bank0
  2140  070E  1303               	bcf	3,6	;RP1=0, select bank0
  2141  070F  00A1               	movwf	?_sprintf+1
  2142  0710  30E3               	movlw	(low (_Luz| 0))& (0+255)
  2143  0711  120A  158A  214C  120A  118A  	fcall	_sprintf
  2144  0716                     l3138:
  2145                           
  2146                           ;main.c: 78:         strcat(Fila2,Luz);
  2147  0716  30E3               	movlw	(low (_Luz| 0))& (0+255)
  2148  0717  00F0               	movwf	strcat@from
  2149  0718  3000               	movlw	0
  2150  0719  00F1               	movwf	strcat@from+1
  2151  071A  3090               	movlw	(low (_Fila2| (0+256)))& (0+255)
  2152  071B  160A  118A  23E6  120A  118A  	fcall	_strcat
  2153  0720                     l3140:
  2154                           
  2155                           ;main.c: 79:         _delay((unsigned long)((500)*(8000000/4000.0)));
  2156  0720  3006               	movlw	6
  2157  0721  1683               	bsf	3,5	;RP0=1, select bank1
  2158  0722  1303               	bcf	3,6	;RP1=0, select bank1
  2159  0723  00B8               	movwf	(??_main^(0+128)+2)
  2160  0724  3013               	movlw	19
  2161  0725  00B7               	movwf	(??_main^(0+128)+1)
  2162  0726  30AD               	movlw	173
  2163  0727  00B6               	movwf	??_main^(0+128)
  2164  0728                     u4577:
  2165  0728  0BB6               	decfsz	??_main^(0+128),f
  2166  0729  2F28               	goto	u4577
  2167  072A  0BB7               	decfsz	(??_main^(0+128)+1),f
  2168  072B  2F28               	goto	u4577
  2169  072C  0BB8               	decfsz	(??_main^(0+128)+2),f
  2170  072D  2F28               	goto	u4577
  2171  072E                     l3142:
  2172                           
  2173                           ;main.c: 80:         LCD_String_xy(2,0,Fila2);
  2174  072E  01F5               	clrf	LCD_String_xy@pos
  2175  072F  3090               	movlw	(low (_Fila2| (0+256)))& (0+255)
  2176  0730  1683               	bsf	3,5	;RP0=1, select bank1
  2177  0731  1303               	bcf	3,6	;RP1=0, select bank1
  2178  0732  00B6               	movwf	??_main^(0+128)
  2179  0733  0836               	movf	??_main^(0+128),w
  2180  0734  00F6               	movwf	LCD_String_xy@msg
  2181  0735  3002               	movlw	2
  2182  0736  160A  118A  236E  120A  118A  	fcall	_LCD_String_xy
  2183  073B                     l3144:
  2184                           
  2185                           ;main.c: 82:         USART_SendString(Temperatura);
  2186  073B  30DF               	movlw	(low (_Temperatura| 0))& (0+255)
  2187  073C  160A  118A  2336  120A  118A  	fcall	_USART_SendString
  2188  0741                     l3146:
  2189                           
  2190                           ;main.c: 86:         if (Valor_Temperatura > 28){
  2191  0741  3041               	movlw	65
  2192  0742  00F3               	movwf	___flge@ff1+3
  2193  0743  30E0               	movlw	224
  2194  0744  00F2               	movwf	___flge@ff1+2
  2195  0745  3000               	movlw	0
  2196  0746  00F1               	movwf	___flge@ff1+1
  2197  0747  3000               	movlw	0
  2198  0748  00F0               	movwf	___flge@ff1
  2199  0749  1683               	bsf	3,5	;RP0=1, select bank1
  2200  074A  1303               	bcf	3,6	;RP1=0, select bank1
  2201  074B  084C               	movf	(main@Valor_Temperatura+3)^(0+128),w
  2202  074C  00F7               	movwf	___flge@ff2+3
  2203  074D  084B               	movf	(main@Valor_Temperatura+2)^(0+128),w
  2204  074E  00F6               	movwf	___flge@ff2+2
  2205  074F  084A               	movf	(main@Valor_Temperatura+1)^(0+128),w
  2206  0750  00F5               	movwf	___flge@ff2+1
  2207  0751  0849               	movf	main@Valor_Temperatura^(0+128),w
  2208  0752  00F4               	movwf	___flge@ff2
  2209  0753  120A  118A  2018  120A  118A  	fcall	___flge
  2210  0758  1803               	btfsc	3,0
  2211  0759  2F5B               	goto	u4251
  2212  075A  2F5C               	goto	u4250
  2213  075B                     u4251:
  2214  075B  2F62               	goto	l3150
  2215  075C                     u4250:
  2216  075C                     l3148:
  2217                           
  2218                           ;main.c: 87:            PORTEbits.RE0=1;
  2219  075C  1283               	bcf	3,5	;RP0=0, select bank0
  2220  075D  1303               	bcf	3,6	;RP1=0, select bank0
  2221  075E  1409               	bsf	9,0	;volatile
  2222                           
  2223                           ;main.c: 88:            PORTEbits.RE1=0;
  2224  075F  1089               	bcf	9,1	;volatile
  2225                           
  2226                           ;main.c: 89:            PORTEbits.RE2=0;
  2227  0760  1109               	bcf	9,2	;volatile
  2228                           
  2229                           ;main.c: 90:         }else{
  2230  0761  2FC4               	goto	l3160
  2231  0762                     l3150:
  2232                           
  2233                           ;main.c: 91:             if(28 >= Valor_Temperatura && Valor_Temperatura >= 10){
  2234  0762  3041               	movlw	65
  2235  0763  00F3               	movwf	___flge@ff1+3
  2236  0764  30E0               	movlw	224
  2237  0765  00F2               	movwf	___flge@ff1+2
  2238  0766  3000               	movlw	0
  2239  0767  00F1               	movwf	___flge@ff1+1
  2240  0768  3000               	movlw	0
  2241  0769  00F0               	movwf	___flge@ff1
  2242  076A  1683               	bsf	3,5	;RP0=1, select bank1
  2243  076B  1303               	bcf	3,6	;RP1=0, select bank1
  2244  076C  084C               	movf	(main@Valor_Temperatura+3)^(0+128),w
  2245  076D  00F7               	movwf	___flge@ff2+3
  2246  076E  084B               	movf	(main@Valor_Temperatura+2)^(0+128),w
  2247  076F  00F6               	movwf	___flge@ff2+2
  2248  0770  084A               	movf	(main@Valor_Temperatura+1)^(0+128),w
  2249  0771  00F5               	movwf	___flge@ff2+1
  2250  0772  0849               	movf	main@Valor_Temperatura^(0+128),w
  2251  0773  00F4               	movwf	___flge@ff2
  2252  0774  120A  118A  2018  120A  118A  	fcall	___flge
  2253  0779  1C03               	btfss	3,0
  2254  077A  2F7C               	goto	u4261
  2255  077B  2F7D               	goto	u4260
  2256  077C                     u4261:
  2257  077C  2F9E               	goto	l3156
  2258  077D                     u4260:
  2259  077D                     l3152:
  2260  077D  1683               	bsf	3,5	;RP0=1, select bank1
  2261  077E  1303               	bcf	3,6	;RP1=0, select bank1
  2262  077F  084C               	movf	(main@Valor_Temperatura+3)^(0+128),w
  2263  0780  00F3               	movwf	___flge@ff1+3
  2264  0781  084B               	movf	(main@Valor_Temperatura+2)^(0+128),w
  2265  0782  00F2               	movwf	___flge@ff1+2
  2266  0783  084A               	movf	(main@Valor_Temperatura+1)^(0+128),w
  2267  0784  00F1               	movwf	___flge@ff1+1
  2268  0785  0849               	movf	main@Valor_Temperatura^(0+128),w
  2269  0786  00F0               	movwf	___flge@ff1
  2270  0787  3041               	movlw	65
  2271  0788  00F7               	movwf	___flge@ff2+3
  2272  0789  3020               	movlw	32
  2273  078A  00F6               	movwf	___flge@ff2+2
  2274  078B  3000               	movlw	0
  2275  078C  00F5               	movwf	___flge@ff2+1
  2276  078D  3000               	movlw	0
  2277  078E  00F4               	movwf	___flge@ff2
  2278  078F  120A  118A  2018  120A  118A  	fcall	___flge
  2279  0794  1C03               	btfss	3,0
  2280  0795  2F97               	goto	u4271
  2281  0796  2F98               	goto	u4270
  2282  0797                     u4271:
  2283  0797  2F9E               	goto	l3156
  2284  0798                     u4270:
  2285  0798                     l3154:
  2286                           
  2287                           ;main.c: 92:                PORTEbits.RE0=0;
  2288  0798  1283               	bcf	3,5	;RP0=0, select bank0
  2289  0799  1303               	bcf	3,6	;RP1=0, select bank0
  2290  079A  1009               	bcf	9,0	;volatile
  2291                           
  2292                           ;main.c: 93:                PORTEbits.RE1=1;
  2293  079B  1489               	bsf	9,1	;volatile
  2294                           
  2295                           ;main.c: 94:                PORTEbits.RE2=0;
  2296  079C  1109               	bcf	9,2	;volatile
  2297                           
  2298                           ;main.c: 95:             }else{
  2299  079D  2FC4               	goto	l3160
  2300  079E                     l3156:
  2301                           
  2302                           ;main.c: 96:                 if(Valor_Temperatura<10){
  2303  079E  1683               	bsf	3,5	;RP0=1, select bank1
  2304  079F  1303               	bcf	3,6	;RP1=0, select bank1
  2305  07A0  084C               	movf	(main@Valor_Temperatura+3)^(0+128),w
  2306  07A1  00F3               	movwf	___flge@ff1+3
  2307  07A2  084B               	movf	(main@Valor_Temperatura+2)^(0+128),w
  2308  07A3  00F2               	movwf	___flge@ff1+2
  2309  07A4  084A               	movf	(main@Valor_Temperatura+1)^(0+128),w
  2310  07A5  00F1               	movwf	___flge@ff1+1
  2311  07A6  0849               	movf	main@Valor_Temperatura^(0+128),w
  2312  07A7  00F0               	movwf	___flge@ff1
  2313  07A8  3041               	movlw	65
  2314  07A9  00F7               	movwf	___flge@ff2+3
  2315  07AA  3020               	movlw	32
  2316  07AB  00F6               	movwf	___flge@ff2+2
  2317  07AC  3000               	movlw	0
  2318  07AD  00F5               	movwf	___flge@ff2+1
  2319  07AE  3000               	movlw	0
  2320  07AF  00F4               	movwf	___flge@ff2
  2321  07B0  120A  118A  2018  120A  118A  	fcall	___flge
  2322  07B5  1803               	btfsc	3,0
  2323  07B6  2FB8               	goto	u4281
  2324  07B7  2FB9               	goto	u4280
  2325  07B8                     u4281:
  2326  07B8  2FBF               	goto	l62
  2327  07B9                     u4280:
  2328  07B9                     l3158:
  2329                           
  2330                           ;main.c: 97:                    PORTEbits.RE0=0;
  2331  07B9  1283               	bcf	3,5	;RP0=0, select bank0
  2332  07BA  1303               	bcf	3,6	;RP1=0, select bank0
  2333  07BB  1009               	bcf	9,0	;volatile
  2334                           
  2335                           ;main.c: 98:                    PORTEbits.RE1=0;
  2336  07BC  1089               	bcf	9,1	;volatile
  2337                           
  2338                           ;main.c: 99:                    PORTEbits.RE2=1;
  2339  07BD  1509               	bsf	9,2	;volatile
  2340                           
  2341                           ;main.c: 100:                 }else{
  2342  07BE  2FC4               	goto	l3160
  2343  07BF                     l62:
  2344                           
  2345                           ;main.c: 101:                     PORTEbits.RE0=0;
  2346  07BF  1283               	bcf	3,5	;RP0=0, select bank0
  2347  07C0  1303               	bcf	3,6	;RP1=0, select bank0
  2348  07C1  1009               	bcf	9,0	;volatile
  2349                           
  2350                           ;main.c: 102:                     PORTEbits.RE1=0;
  2351  07C2  1089               	bcf	9,1	;volatile
  2352                           
  2353                           ;main.c: 103:                     PORTEbits.RE2=0;
  2354  07C3  1109               	bcf	9,2	;volatile
  2355  07C4                     l3160:
  2356                           
  2357                           ;main.c: 107:         _delay((unsigned long)((2000)*(8000000/4000.0)));
  2358  07C4  3015               	movlw	21
  2359  07C5  1683               	bsf	3,5	;RP0=1, select bank1
  2360  07C6  1303               	bcf	3,6	;RP1=0, select bank1
  2361  07C7  00B8               	movwf	(??_main^(0+128)+2)
  2362  07C8  304B               	movlw	75
  2363  07C9  00B7               	movwf	(??_main^(0+128)+1)
  2364  07CA  30BD               	movlw	189
  2365  07CB  00B6               	movwf	??_main^(0+128)
  2366  07CC                     u4587:
  2367  07CC  0BB6               	decfsz	??_main^(0+128),f
  2368  07CD  2FCC               	goto	u4587
  2369  07CE  0BB7               	decfsz	(??_main^(0+128)+1),f
  2370  07CF  2FCC               	goto	u4587
  2371  07D0  0BB8               	decfsz	(??_main^(0+128)+2),f
  2372  07D1  2FCC               	goto	u4587
  2373  07D2  2FD3               	nop2
  2374  07D3                     l3162:
  2375                           
  2376                           ;main.c: 108:         LCD_Clear();
  2377  07D3  160A  118A  22FF  120A  118A  	fcall	_LCD_Clear
  2378  07D8  2C51               	goto	l3094
  2379  07D9  120A  118A  2800   	ljmp	start
  2380  07DC                     __end_of_main:
  2381                           
  2382                           	psect	text1
  2383  134D                     __ptext1:	
  2384 ;; *************** function _strcpy *****************
  2385 ;; Defined at:
  2386 ;;		line 8 in file "C:\Program Files\Microchip\xc8\v2.36\pic\sources\c90\common\strcpy.c"
  2387 ;; Parameters:    Size  Location     Type
  2388 ;;  to              1    wreg     PTR unsigned char 
  2389 ;;		 -> Fila2(16), Fila1(16), 
  2390 ;;  from            1    0[COMMON] PTR const unsigned char 
  2391 ;;		 -> STR_5(4), STR_1(4), 
  2392 ;; Auto vars:     Size  Location     Type
  2393 ;;  to              1    3[COMMON] PTR unsigned char 
  2394 ;;		 -> Fila2(16), Fila1(16), 
  2395 ;;  cp              1    2[COMMON] PTR unsigned char 
  2396 ;;		 -> Fila2(16), Fila1(16), 
  2397 ;; Return value:  Size  Location     Type
  2398 ;;                  1    wreg      PTR unsigned char 
  2399 ;; Registers used:
  2400 ;;		wreg, fsr0l, fsr0h, status,2, status,0, pclath
  2401 ;; Tracked objects:
  2402 ;;		On entry : 0/0
  2403 ;;		On exit  : 0/0
  2404 ;;		Unchanged: 0/0
  2405 ;; Data sizes:     COMMON   BANK0   BANK1   BANK3   BANK2
  2406 ;;      Params:         1       0       0       0       0
  2407 ;;      Locals:         2       0       0       0       0
  2408 ;;      Temps:          1       0       0       0       0
  2409 ;;      Totals:         4       0       0       0       0
  2410 ;;Total ram usage:        4 bytes
  2411 ;; Hardware stack levels used: 2
  2412 ;; This function calls:
  2413 ;;		Nothing
  2414 ;; This function is called by:
  2415 ;;		_main
  2416 ;; This function uses a non-reentrant model
  2417 ;;
  2418                           
  2419  134D                     _strcpy:	
  2420                           ;psect for function _strcpy
  2421                           
  2422                           
  2423                           ;incstack = 0
  2424                           ; Regs used in _strcpy: [wreg-fsr0h+status,2+status,0+pclath]
  2425                           ;strcpy@to stored from wreg
  2426  134D  00F3               	movwf	strcpy@to
  2427  134E                     l2788:
  2428  134E  0873               	movf	strcpy@to,w
  2429  134F  00F1               	movwf	??_strcpy
  2430  1350  0871               	movf	??_strcpy,w
  2431  1351  00F2               	movwf	strcpy@cp
  2432  1352  2B5B               	goto	l2792
  2433  1353                     l2790:
  2434  1353  3001               	movlw	1
  2435  1354  00F1               	movwf	??_strcpy
  2436  1355  0871               	movf	??_strcpy,w
  2437  1356  07F2               	addwf	strcpy@cp,f
  2438  1357  3001               	movlw	1
  2439  1358  00F1               	movwf	??_strcpy
  2440  1359  0871               	movf	??_strcpy,w
  2441  135A  07F0               	addwf	strcpy@from,f
  2442  135B                     l2792:
  2443  135B  0870               	movf	strcpy@from,w
  2444  135C  0084               	movwf	4
  2445  135D  120A  158A  200A  160A  118A  	fcall	stringdir
  2446  1362  00F1               	movwf	??_strcpy
  2447  1363  0872               	movf	strcpy@cp,w
  2448  1364  0084               	movwf	4
  2449  1365  0871               	movf	??_strcpy,w
  2450  1366  1783               	bsf	3,7	;select IRP bank2
  2451  1367  0080               	movwf	0
  2452  1368  0800               	movf	0,w
  2453  1369  1D03               	btfss	3,2
  2454  136A  2B6C               	goto	u3741
  2455  136B  2B6D               	goto	u3740
  2456  136C                     u3741:
  2457  136C  2B53               	goto	l2790
  2458  136D                     u3740:
  2459  136D                     l866:
  2460  136D  0008               	return
  2461  136E                     __end_of_strcpy:
  2462                           
  2463                           	psect	text2
  2464  13E6                     __ptext2:	
  2465 ;; *************** function _strcat *****************
  2466 ;; Defined at:
  2467 ;;		line 8 in file "C:\Program Files\Microchip\xc8\v2.36\pic\sources\c90\common\strcat.c"
  2468 ;; Parameters:    Size  Location     Type
  2469 ;;  to              1    wreg     PTR unsigned char 
  2470 ;;		 -> Fila2(16), Fila1(16), 
  2471 ;;  from            2    0[COMMON] PTR const unsigned char 
  2472 ;;		 -> Luz(1), Humedad(4), STR_3(4), Temperatura(4), 
  2473 ;; Auto vars:     Size  Location     Type
  2474 ;;  to              1    3[COMMON] PTR unsigned char 
  2475 ;;		 -> Fila2(16), Fila1(16), 
  2476 ;;  cp              1    4[COMMON] PTR unsigned char 
  2477 ;;		 -> Fila2(16), Fila1(16), 
  2478 ;; Return value:  Size  Location     Type
  2479 ;;                  1    wreg      PTR unsigned char 
  2480 ;; Registers used:
  2481 ;;		wreg, fsr0l, fsr0h, status,2, status,0, btemp+1, pclath
  2482 ;; Tracked objects:
  2483 ;;		On entry : 0/0
  2484 ;;		On exit  : 0/0
  2485 ;;		Unchanged: 0/0
  2486 ;; Data sizes:     COMMON   BANK0   BANK1   BANK3   BANK2
  2487 ;;      Params:         2       0       0       0       0
  2488 ;;      Locals:         2       0       0       0       0
  2489 ;;      Temps:          1       0       0       0       0
  2490 ;;      Totals:         5       0       0       0       0
  2491 ;;Total ram usage:        5 bytes
  2492 ;; Hardware stack levels used: 2
  2493 ;; This function calls:
  2494 ;;		Nothing
  2495 ;; This function is called by:
  2496 ;;		_main
  2497 ;; This function uses a non-reentrant model
  2498 ;;
  2499                           
  2500  13E6                     _strcat:	
  2501                           ;psect for function _strcat
  2502                           
  2503                           
  2504                           ;incstack = 0
  2505                           ; Regs used in _strcat: [wreg-fsr0h+status,2+status,0+btemp+1+pclath]
  2506                           ;strcat@to stored from wreg
  2507  13E6  00F3               	movwf	strcat@to
  2508  13E7                     l2862:
  2509  13E7  0873               	movf	strcat@to,w
  2510  13E8  00F2               	movwf	??_strcat
  2511  13E9  0872               	movf	??_strcat,w
  2512  13EA  00F4               	movwf	strcat@cp
  2513  13EB  2BF0               	goto	l2866
  2514  13EC                     l2864:
  2515  13EC  3001               	movlw	1
  2516  13ED  00F2               	movwf	??_strcat
  2517  13EE  0872               	movf	??_strcat,w
  2518  13EF  07F4               	addwf	strcat@cp,f
  2519  13F0                     l2866:
  2520  13F0  0874               	movf	strcat@cp,w
  2521  13F1  0084               	movwf	4
  2522  13F2  1783               	bsf	3,7	;select IRP bank2
  2523  13F3  0800               	movf	0,w
  2524  13F4  1D03               	btfss	3,2
  2525  13F5  2BF7               	goto	u3821
  2526  13F6  2BF8               	goto	u3820
  2527  13F7                     u3821:
  2528  13F7  2BEC               	goto	l2864
  2529  13F8                     u3820:
  2530  13F8  2C03               	goto	l2872
  2531  13F9                     l2868:
  2532  13F9  3001               	movlw	1
  2533  13FA  00F2               	movwf	??_strcat
  2534  13FB  0872               	movf	??_strcat,w
  2535  13FC  07F4               	addwf	strcat@cp,f
  2536  13FD                     l2870:
  2537  13FD  3001               	movlw	1
  2538  13FE  07F0               	addwf	strcat@from,f
  2539  13FF  1803               	skipnc
  2540  1400  0AF1               	incf	strcat@from+1,f
  2541  1401  3000               	movlw	0
  2542  1402  07F1               	addwf	strcat@from+1,f
  2543  1403                     l2872:
  2544  1403  0871               	movf	strcat@from+1,w
  2545  1404  1283               	bcf	3,5	;RP0=0, select bank0
  2546  1405  1303               	bcf	3,6	;RP1=0, select bank0
  2547  1406  00FF               	movwf	btemp+1
  2548  1407  0870               	movf	strcat@from,w
  2549  1408  0084               	movwf	4
  2550  1409  120A  158A  2000  160A  118A  	fcall	stringtab
  2551  140E  00F2               	movwf	??_strcat
  2552  140F  0874               	movf	strcat@cp,w
  2553  1410  0084               	movwf	4
  2554  1411  0872               	movf	??_strcat,w
  2555  1412  1783               	bsf	3,7	;select IRP bank2
  2556  1413  0080               	movwf	0
  2557  1414  0800               	movf	0,w
  2558  1415  1D03               	btfss	3,2
  2559  1416  2C18               	goto	u3831
  2560  1417  2C19               	goto	u3830
  2561  1418                     u3831:
  2562  1418  2BF9               	goto	l2868
  2563  1419                     u3830:
  2564  1419                     l860:
  2565  1419  0008               	return
  2566  141A                     __end_of_strcat:
  2567                           
  2568                           	psect	text3
  2569  094C                     __ptext3:	
  2570 ;; *************** function _sprintf *****************
  2571 ;; Defined at:
  2572 ;;		line 505 in file "C:\Program Files\Microchip\xc8\v2.36\pic\sources\c90\common\doprnt.c"
  2573 ;; Parameters:    Size  Location     Type
  2574 ;;  sp              1    wreg     PTR unsigned char 
  2575 ;;		 -> Luz(1), Humedad(4), Temperatura(4), 
  2576 ;;  f               1    0[BANK0 ] PTR const unsigned char 
  2577 ;;		 -> STR_6(5), STR_4(7), STR_2(8), 
  2578 ;; Auto vars:     Size  Location     Type
  2579 ;;  sp              1   13[BANK0 ] PTR unsigned char 
  2580 ;;		 -> Luz(1), Humedad(4), Temperatura(4), 
  2581 ;;  tmpval          4    0        struct .
  2582 ;;  val             2   11[BANK0 ] unsigned int 
  2583 ;;  cp              2    0        PTR const unsigned char 
  2584 ;;  len             2    0        unsigned int 
  2585 ;;  c               1   14[BANK0 ] unsigned char 
  2586 ;;  ap              1   10[BANK0 ] PTR void [1]
  2587 ;;		 -> ?_sprintf(2), 
  2588 ;;  prec            1    9[BANK0 ] char 
  2589 ;;  flag            1    8[BANK0 ] unsigned char 
  2590 ;; Return value:  Size  Location     Type
  2591 ;;                  2    0[BANK0 ] int 
  2592 ;; Registers used:
  2593 ;;		wreg, fsr0l, fsr0h, status,2, status,0, btemp+1, pclath, cstack
  2594 ;; Tracked objects:
  2595 ;;		On entry : 0/0
  2596 ;;		On exit  : 0/0
  2597 ;;		Unchanged: 0/0
  2598 ;; Data sizes:     COMMON   BANK0   BANK1   BANK3   BANK2
  2599 ;;      Params:         0       5       0       0       0
  2600 ;;      Locals:         0       7       0       0       0
  2601 ;;      Temps:          0       3       0       0       0
  2602 ;;      Totals:         0      15       0       0       0
  2603 ;;Total ram usage:       15 bytes
  2604 ;; Hardware stack levels used: 1
  2605 ;; Hardware stack levels required when called: 1
  2606 ;; This function calls:
  2607 ;;		___lwdiv
  2608 ;;		___lwmod
  2609 ;; This function is called by:
  2610 ;;		_main
  2611 ;; This function uses a non-reentrant model
  2612 ;;
  2613                           
  2614  094C                     _sprintf:	
  2615                           ;psect for function _sprintf
  2616                           
  2617                           
  2618                           ;incstack = 0
  2619                           ; Regs used in _sprintf: [wreg-fsr0h+status,2+status,0+btemp+1+pclath+cstack]
  2620                           ;sprintf@sp stored from wreg
  2621  094C  1283               	bcf	3,5	;RP0=0, select bank0
  2622  094D  1303               	bcf	3,6	;RP1=0, select bank0
  2623  094E  00AD               	movwf	sprintf@sp
  2624  094F                     l2794:
  2625                           
  2626                           ;C:\Program Files\Microchip\xc8\v2.36\pic\sources\c90\common\doprnt.c: 505: sprintf(char
      +                           * sp, const char * f, ...);C:\Program Files\Microchip\xc8\v2.36\pic\sources\c90\common\
      +                          doprnt.c: 506: {;C:\Program Files\Microchip\xc8\v2.36\pic\sources\c90\common\doprnt.c: 5
      +                          07:  va_list ap;;C:\Program Files\Microchip\xc8\v2.36\pic\sources\c90\common\doprnt.c: 5
      +                          12:  char c;;C:\Program Files\Microchip\xc8\v2.36\pic\sources\c90\common\doprnt.c: 521: 
      +                           signed char prec;;C:\Program Files\Microchip\xc8\v2.36\pic\sources\c90\common\doprnt.c:
      +                           525:  unsigned char flag;
  2627  094F  3021               	movlw	(low ((?_sprintf| 0+1)))& (0+255)
  2628  0950  00A5               	movwf	??_sprintf
  2629  0951  0825               	movf	??_sprintf,w
  2630  0952  00AA               	movwf	sprintf@ap
  2631                           
  2632                           ;C:\Program Files\Microchip\xc8\v2.36\pic\sources\c90\common\doprnt.c: 553:  while((c = 
      +                          *f++)) {
  2633  0953  2A38               	goto	l2852
  2634  0954                     l2796:
  2635                           
  2636                           ;C:\Program Files\Microchip\xc8\v2.36\pic\sources\c90\common\doprnt.c: 555:   if(c != '%
      +                          ')
  2637  0954  3025               	movlw	37
  2638  0955  062E               	xorwf	sprintf@c,w
  2639  0956  1903               	btfsc	3,2
  2640  0957  2959               	goto	u3751
  2641  0958  295A               	goto	u3750
  2642  0959                     u3751:
  2643  0959  2966               	goto	l2802
  2644  095A                     u3750:
  2645  095A                     l2798:
  2646                           
  2647                           ;C:\Program Files\Microchip\xc8\v2.36\pic\sources\c90\common\doprnt.c: 557:   {;C:\Progr
      +                          am Files\Microchip\xc8\v2.36\pic\sources\c90\common\doprnt.c: 558:    ((*sp++ = (c)));
  2648  095A  082E               	movf	sprintf@c,w
  2649  095B  00A5               	movwf	??_sprintf
  2650  095C  082D               	movf	sprintf@sp,w
  2651  095D  0084               	movwf	4
  2652  095E  0825               	movf	??_sprintf,w
  2653  095F  1383               	bcf	3,7	;select IRP bank0
  2654  0960  0080               	movwf	0
  2655  0961                     l2800:
  2656  0961  3001               	movlw	1
  2657  0962  00A5               	movwf	??_sprintf
  2658  0963  0825               	movf	??_sprintf,w
  2659  0964  07AD               	addwf	sprintf@sp,f
  2660                           
  2661                           ;C:\Program Files\Microchip\xc8\v2.36\pic\sources\c90\common\doprnt.c: 559:    continue;
  2662  0965  2A38               	goto	l2852
  2663  0966                     l2802:
  2664                           
  2665                           ;C:\Program Files\Microchip\xc8\v2.36\pic\sources\c90\common\doprnt.c: 565:   flag = 0;
  2666  0966  01A8               	clrf	sprintf@flag
  2667                           
  2668                           ;C:\Program Files\Microchip\xc8\v2.36\pic\sources\c90\common\doprnt.c: 661:   switch(c =
      +                           *f++) {
  2669  0967  297F               	goto	l2812
  2670  0968                     l2804:
  2671                           
  2672                           ;C:\Program Files\Microchip\xc8\v2.36\pic\sources\c90\common\doprnt.c: 825:    c = (char
      +                          )(*(int *)__va_arg((*(int **)ap), (int)0));
  2673  0968  082A               	movf	sprintf@ap,w
  2674  0969  0084               	movwf	4
  2675  096A  1383               	bcf	3,7	;select IRP bank0
  2676  096B  0800               	movf	0,w
  2677  096C  00A5               	movwf	??_sprintf
  2678  096D  0825               	movf	??_sprintf,w
  2679  096E  00AE               	movwf	sprintf@c
  2680  096F                     l2806:
  2681  096F  3002               	movlw	2
  2682  0970  00A5               	movwf	??_sprintf
  2683  0971  0825               	movf	??_sprintf,w
  2684  0972  07AA               	addwf	sprintf@ap,f
  2685  0973                     l2808:
  2686                           
  2687                           ;C:\Program Files\Microchip\xc8\v2.36\pic\sources\c90\common\doprnt.c: 835:    ((*sp++ =
      +                           (c)));
  2688  0973  082E               	movf	sprintf@c,w
  2689  0974  00A5               	movwf	??_sprintf
  2690  0975  082D               	movf	sprintf@sp,w
  2691  0976  0084               	movwf	4
  2692  0977  0825               	movf	??_sprintf,w
  2693  0978  1383               	bcf	3,7	;select IRP bank0
  2694  0979  0080               	movwf	0
  2695  097A  3001               	movlw	1
  2696  097B  00A5               	movwf	??_sprintf
  2697  097C  0825               	movf	??_sprintf,w
  2698  097D  07AD               	addwf	sprintf@sp,f
  2699                           
  2700                           ;C:\Program Files\Microchip\xc8\v2.36\pic\sources\c90\common\doprnt.c: 836:    continue;
  2701  097E  2A38               	goto	l2852
  2702  097F                     l2812:
  2703  097F  3001               	movlw	1
  2704  0980  07A0               	addwf	sprintf@f,f
  2705  0981  30FF               	movlw	-1
  2706  0982  0720               	addwf	sprintf@f,w
  2707  0983  0084               	movwf	4
  2708  0984  120A  158A  200A  120A  158A  	fcall	stringdir
  2709  0989  00AE               	movwf	sprintf@c
  2710  098A  00A5               	movwf	??_sprintf
  2711  098B  01A6               	clrf	??_sprintf+1
  2712                           
  2713                           ; Switch on 2 bytes has been partitioned into a top level switch of size 1, and 1 sub-sw
      +                          itches
  2714                           ; Switch size 1, requested type "simple"
  2715                           ; Number of cases is 1, Range of values is 0 to 0
  2716                           ; switch strategies available:
  2717                           ; Name         Instructions Cycles
  2718                           ; simple_byte            4     3 (average)
  2719                           ; direct_byte           11     8 (fixed)
  2720                           ; jumptable            260     6 (fixed)
  2721                           ;	Chosen strategy is simple_byte
  2722  098C  0826               	movf	??_sprintf+1,w
  2723  098D  3A00               	xorlw	0	; case 0
  2724  098E  1903               	skipnz
  2725  098F  2991               	goto	l3280
  2726  0990  2973               	goto	l2808
  2727  0991                     l3280:
  2728                           
  2729                           ; Switch size 1, requested type "simple"
  2730                           ; Number of cases is 4, Range of values is 0 to 105
  2731                           ; switch strategies available:
  2732                           ; Name         Instructions Cycles
  2733                           ; simple_byte           13     7 (average)
  2734                           ; jumptable            260     6 (fixed)
  2735                           ;	Chosen strategy is simple_byte
  2736  0991  0825               	movf	??_sprintf,w
  2737  0992  3A00               	xorlw	0	; case 0
  2738  0993  1903               	skipnz
  2739  0994  2A4A               	goto	l2854
  2740  0995  3A63               	xorlw	99	; case 99
  2741  0996  1903               	skipnz
  2742  0997  2968               	goto	l2804
  2743  0998  3A07               	xorlw	7	; case 100
  2744  0999  1903               	skipnz
  2745  099A  299F               	goto	l2814
  2746  099B  3A0D               	xorlw	13	; case 105
  2747  099C  1903               	skipnz
  2748  099D  299F               	goto	l2814
  2749  099E  2973               	goto	l2808
  2750  099F                     l2814:
  2751                           
  2752                           ;C:\Program Files\Microchip\xc8\v2.36\pic\sources\c90\common\doprnt.c: 1279:   {;C:\Prog
      +                          ram Files\Microchip\xc8\v2.36\pic\sources\c90\common\doprnt.c: 1285:     val = (unsigned
      +                           int)(*(int *)__va_arg((*(int **)ap), (int)0));
  2753  099F  082A               	movf	sprintf@ap,w
  2754  09A0  0084               	movwf	4
  2755  09A1  1383               	bcf	3,7	;select IRP bank0
  2756  09A2  0800               	movf	0,w
  2757  09A3  00AB               	movwf	sprintf@val
  2758  09A4  0A84               	incf	4,f
  2759  09A5  0800               	movf	0,w
  2760  09A6  00AC               	movwf	sprintf@val+1
  2761  09A7                     l2816:
  2762  09A7  3002               	movlw	2
  2763  09A8  00A5               	movwf	??_sprintf
  2764  09A9  0825               	movf	??_sprintf,w
  2765  09AA  07AA               	addwf	sprintf@ap,f
  2766  09AB                     l2818:
  2767                           
  2768                           ;C:\Program Files\Microchip\xc8\v2.36\pic\sources\c90\common\doprnt.c: 1287:    if((int)
      +                          val < 0) {
  2769  09AB  1FAC               	btfss	sprintf@val+1,7
  2770  09AC  29AE               	goto	u3761
  2771  09AD  29AF               	goto	u3760
  2772  09AE                     u3761:
  2773  09AE  29B8               	goto	l2824
  2774  09AF                     u3760:
  2775  09AF                     l2820:
  2776                           
  2777                           ;C:\Program Files\Microchip\xc8\v2.36\pic\sources\c90\common\doprnt.c: 1288:     flag |=
      +                           0x03;
  2778  09AF  3003               	movlw	3
  2779  09B0  00A5               	movwf	??_sprintf
  2780  09B1  0825               	movf	??_sprintf,w
  2781  09B2  04A8               	iorwf	sprintf@flag,f
  2782  09B3                     l2822:
  2783                           
  2784                           ;C:\Program Files\Microchip\xc8\v2.36\pic\sources\c90\common\doprnt.c: 1289:     val = -
      +                          val;
  2785  09B3  09AB               	comf	sprintf@val,f
  2786  09B4  09AC               	comf	sprintf@val+1,f
  2787  09B5  0AAB               	incf	sprintf@val,f
  2788  09B6  1903               	skipnz
  2789  09B7  0AAC               	incf	sprintf@val+1,f
  2790  09B8                     l2824:
  2791                           
  2792                           ;C:\Program Files\Microchip\xc8\v2.36\pic\sources\c90\common\doprnt.c: 1292:   };C:\Prog
      +                          ram Files\Microchip\xc8\v2.36\pic\sources\c90\common\doprnt.c: 1331:    for(c = 1 ; c !=
      +                           sizeof dpowers/sizeof dpowers[0] ; c++)
  2793  09B8  01AE               	clrf	sprintf@c
  2794  09B9  0AAE               	incf	sprintf@c,f
  2795  09BA                     l2830:
  2796                           
  2797                           ;C:\Program Files\Microchip\xc8\v2.36\pic\sources\c90\common\doprnt.c: 1332:     if(val 
      +                          < dpowers[c])
  2798  09BA  082E               	movf	sprintf@c,w
  2799  09BB  00A5               	movwf	??_sprintf
  2800  09BC  0725               	addwf	??_sprintf,w
  2801  09BD  3E01               	addlw	low ((_dpowers-__stringbase)| (0+32768))
  2802  09BE  0084               	movwf	4
  2803  09BF  120A  158A  200A  120A  158A  	fcall	stringdir
  2804  09C4  00A6               	movwf	??_sprintf+1
  2805  09C5  120A  158A  200A  120A  158A  	fcall	stringdir
  2806  09CA  00A7               	movwf	??_sprintf+2
  2807  09CB  0827               	movf	??_sprintf+2,w
  2808  09CC  022C               	subwf	sprintf@val+1,w
  2809  09CD  1D03               	skipz
  2810  09CE  29D1               	goto	u3775
  2811  09CF  0826               	movf	??_sprintf+1,w
  2812  09D0  022B               	subwf	sprintf@val,w
  2813  09D1                     u3775:
  2814  09D1  1803               	skipnc
  2815  09D2  29D4               	goto	u3771
  2816  09D3  29D5               	goto	u3770
  2817  09D4                     u3771:
  2818  09D4  29D6               	goto	l2834
  2819  09D5                     u3770:
  2820  09D5  29E0               	goto	l2836
  2821  09D6                     l2834:
  2822  09D6  3001               	movlw	1
  2823  09D7  00A5               	movwf	??_sprintf
  2824  09D8  0825               	movf	??_sprintf,w
  2825  09D9  07AE               	addwf	sprintf@c,f
  2826  09DA  3005               	movlw	5
  2827  09DB  062E               	xorwf	sprintf@c,w
  2828  09DC  1D03               	btfss	3,2
  2829  09DD  29DF               	goto	u3781
  2830  09DE  29E0               	goto	u3780
  2831  09DF                     u3781:
  2832  09DF  29BA               	goto	l2830
  2833  09E0                     u3780:
  2834  09E0                     l2836:
  2835                           
  2836                           ;C:\Program Files\Microchip\xc8\v2.36\pic\sources\c90\common\doprnt.c: 1448:   {;C:\Prog
      +                          ram Files\Microchip\xc8\v2.36\pic\sources\c90\common\doprnt.c: 1464:    if(flag & 0x03)
  2837  09E0  0828               	movf	sprintf@flag,w
  2838  09E1  3903               	andlw	3
  2839  09E2  1903               	btfsc	3,2
  2840  09E3  29E5               	goto	u3791
  2841  09E4  29E6               	goto	u3790
  2842  09E5                     u3791:
  2843  09E5  29F1               	goto	l2842
  2844  09E6                     u3790:
  2845  09E6                     l2838:
  2846                           
  2847                           ;C:\Program Files\Microchip\xc8\v2.36\pic\sources\c90\common\doprnt.c: 1465:     ((*sp++
      +                           = ('-')));
  2848  09E6  302D               	movlw	45
  2849  09E7  00A5               	movwf	??_sprintf
  2850  09E8  082D               	movf	sprintf@sp,w
  2851  09E9  0084               	movwf	4
  2852  09EA  0825               	movf	??_sprintf,w
  2853  09EB  1383               	bcf	3,7	;select IRP bank0
  2854  09EC  0080               	movwf	0
  2855  09ED                     l2840:
  2856  09ED  3001               	movlw	1
  2857  09EE  00A5               	movwf	??_sprintf
  2858  09EF  0825               	movf	??_sprintf,w
  2859  09F0  07AD               	addwf	sprintf@sp,f
  2860  09F1                     l2842:
  2861                           
  2862                           ;C:\Program Files\Microchip\xc8\v2.36\pic\sources\c90\common\doprnt.c: 1495:   };C:\Prog
      +                          ram Files\Microchip\xc8\v2.36\pic\sources\c90\common\doprnt.c: 1498:   prec = c;
  2863  09F1  082E               	movf	sprintf@c,w
  2864  09F2  00A5               	movwf	??_sprintf
  2865  09F3  0825               	movf	??_sprintf,w
  2866  09F4  00A9               	movwf	sprintf@prec
  2867                           
  2868                           ;C:\Program Files\Microchip\xc8\v2.36\pic\sources\c90\common\doprnt.c: 1500:   while(pre
      +                          c--) {
  2869  09F5  2A2F               	goto	l2850
  2870  09F6                     l2844:
  2871                           
  2872                           ;C:\Program Files\Microchip\xc8\v2.36\pic\sources\c90\common\doprnt.c: 1504:    {;C:\Pro
      +                          gram Files\Microchip\xc8\v2.36\pic\sources\c90\common\doprnt.c: 1515:     c = (val / dpo
      +                          wers[(unsigned char)prec]) % 10 + '0';
  2873  09F6  300A               	movlw	10
  2874  09F7  00F8               	movwf	___lwmod@divisor
  2875  09F8  3000               	movlw	0
  2876  09F9  00F9               	movwf	___lwmod@divisor+1
  2877  09FA  0829               	movf	sprintf@prec,w
  2878  09FB  00A5               	movwf	??_sprintf
  2879  09FC  0725               	addwf	??_sprintf,w
  2880  09FD  3E01               	addlw	low ((_dpowers-__stringbase)| (0+32768))
  2881  09FE  0084               	movwf	4
  2882  09FF  120A  158A  200A  120A  158A  	fcall	stringdir
  2883  0A04  00F0               	movwf	___lwdiv@divisor
  2884  0A05  120A  158A  200A  120A  158A  	fcall	stringdir
  2885  0A0A  00F1               	movwf	___lwdiv@divisor+1
  2886  0A0B  082C               	movf	sprintf@val+1,w
  2887  0A0C  00F3               	movwf	___lwdiv@dividend+1
  2888  0A0D  082B               	movf	sprintf@val,w
  2889  0A0E  00F2               	movwf	___lwdiv@dividend
  2890  0A0F  160A  118A  2541  120A  158A  	fcall	___lwdiv
  2891  0A14  0871               	movf	?___lwdiv+1,w
  2892  0A15  00FB               	movwf	___lwmod@dividend+1
  2893  0A16  0870               	movf	?___lwdiv,w
  2894  0A17  00FA               	movwf	___lwmod@dividend
  2895  0A18  160A  118A  2486  120A  158A  	fcall	___lwmod
  2896  0A1D  0878               	movf	?___lwmod,w
  2897  0A1E  3E30               	addlw	48
  2898  0A1F  1283               	bcf	3,5	;RP0=0, select bank0
  2899  0A20  1303               	bcf	3,6	;RP1=0, select bank0
  2900  0A21  00A6               	movwf	??_sprintf+1
  2901  0A22  0826               	movf	??_sprintf+1,w
  2902  0A23  00AE               	movwf	sprintf@c
  2903  0A24                     l2846:
  2904                           
  2905                           ;C:\Program Files\Microchip\xc8\v2.36\pic\sources\c90\common\doprnt.c: 1549:    };C:\Pro
      +                          gram Files\Microchip\xc8\v2.36\pic\sources\c90\common\doprnt.c: 1550:    ((*sp++ = (c)))
      +                          ;
  2906  0A24  082E               	movf	sprintf@c,w
  2907  0A25  00A5               	movwf	??_sprintf
  2908  0A26  082D               	movf	sprintf@sp,w
  2909  0A27  0084               	movwf	4
  2910  0A28  0825               	movf	??_sprintf,w
  2911  0A29  1383               	bcf	3,7	;select IRP bank0
  2912  0A2A  0080               	movwf	0
  2913  0A2B                     l2848:
  2914  0A2B  3001               	movlw	1
  2915  0A2C  00A5               	movwf	??_sprintf
  2916  0A2D  0825               	movf	??_sprintf,w
  2917  0A2E  07AD               	addwf	sprintf@sp,f
  2918  0A2F                     l2850:
  2919                           
  2920                           ;C:\Program Files\Microchip\xc8\v2.36\pic\sources\c90\common\doprnt.c: 1500:   while(pre
      +                          c--) {
  2921  0A2F  30FF               	movlw	255
  2922  0A30  00A5               	movwf	??_sprintf
  2923  0A31  0825               	movf	??_sprintf,w
  2924  0A32  07A9               	addwf	sprintf@prec,f
  2925  0A33  0A29               	incf	sprintf@prec,w
  2926  0A34  1D03               	btfss	3,2
  2927  0A35  2A37               	goto	u3801
  2928  0A36  2A38               	goto	u3800
  2929  0A37                     u3801:
  2930  0A37  29F6               	goto	l2844
  2931  0A38                     u3800:
  2932  0A38                     l2852:
  2933                           
  2934                           ;C:\Program Files\Microchip\xc8\v2.36\pic\sources\c90\common\doprnt.c: 553:  while((c = 
      +                          *f++)) {
  2935  0A38  3001               	movlw	1
  2936  0A39  07A0               	addwf	sprintf@f,f
  2937  0A3A  30FF               	movlw	-1
  2938  0A3B  0720               	addwf	sprintf@f,w
  2939  0A3C  0084               	movwf	4
  2940  0A3D  120A  158A  200A  120A  158A  	fcall	stringdir
  2941  0A42  00A5               	movwf	??_sprintf
  2942  0A43  0825               	movf	??_sprintf,w
  2943  0A44  00AE               	movwf	sprintf@c
  2944  0A45  082E               	movf	sprintf@c,w
  2945  0A46  1D03               	btfss	3,2
  2946  0A47  2A49               	goto	u3811
  2947  0A48  2A4A               	goto	u3810
  2948  0A49                     u3811:
  2949  0A49  2954               	goto	l2796
  2950  0A4A                     u3810:
  2951  0A4A                     l2854:
  2952                           
  2953                           ;C:\Program Files\Microchip\xc8\v2.36\pic\sources\c90\common\doprnt.c: 1564:  *sp = 0;
  2954  0A4A  082D               	movf	sprintf@sp,w
  2955  0A4B  0084               	movwf	4
  2956  0A4C  1383               	bcf	3,7	;select IRP bank0
  2957  0A4D  0180               	clrf	0
  2958  0A4E                     l359:
  2959  0A4E  0008               	return
  2960  0A4F                     __end_of_sprintf:
  2961                           
  2962                           	psect	text4
  2963  1486                     __ptext4:	
  2964 ;; *************** function ___lwmod *****************
  2965 ;; Defined at:
  2966 ;;		line 5 in file "C:\Program Files\Microchip\xc8\v2.36\pic\sources\c90\common\lwmod.c"
  2967 ;; Parameters:    Size  Location     Type
  2968 ;;  divisor         2    8[COMMON] unsigned int 
  2969 ;;  dividend        2   10[COMMON] unsigned int 
  2970 ;; Auto vars:     Size  Location     Type
  2971 ;;  counter         1   13[COMMON] unsigned char 
  2972 ;; Return value:  Size  Location     Type
  2973 ;;                  2    8[COMMON] unsigned int 
  2974 ;; Registers used:
  2975 ;;		wreg, status,2, status,0
  2976 ;; Tracked objects:
  2977 ;;		On entry : 0/0
  2978 ;;		On exit  : 0/0
  2979 ;;		Unchanged: 0/0
  2980 ;; Data sizes:     COMMON   BANK0   BANK1   BANK3   BANK2
  2981 ;;      Params:         4       0       0       0       0
  2982 ;;      Locals:         1       0       0       0       0
  2983 ;;      Temps:          1       0       0       0       0
  2984 ;;      Totals:         6       0       0       0       0
  2985 ;;Total ram usage:        6 bytes
  2986 ;; Hardware stack levels used: 1
  2987 ;; This function calls:
  2988 ;;		Nothing
  2989 ;; This function is called by:
  2990 ;;		_sprintf
  2991 ;; This function uses a non-reentrant model
  2992 ;;
  2993                           
  2994  1486                     ___lwmod:	
  2995                           ;psect for function ___lwmod
  2996                           
  2997  1486                     l2624:	
  2998                           ;incstack = 0
  2999                           ; Regs used in ___lwmod: [wreg+status,2+status,0]
  3000                           
  3001  1486  0878               	movf	___lwmod@divisor,w
  3002  1487  0479               	iorwf	___lwmod@divisor+1,w
  3003  1488  1903               	btfsc	3,2
  3004  1489  2C8B               	goto	u3441
  3005  148A  2C8C               	goto	u3440
  3006  148B                     u3441:
  3007  148B  2CBB               	goto	l2642
  3008  148C                     u3440:
  3009  148C                     l2626:
  3010  148C  01FD               	clrf	___lwmod@counter
  3011  148D  0AFD               	incf	___lwmod@counter,f
  3012  148E  2C9A               	goto	l2632
  3013  148F                     l2628:
  3014  148F  3001               	movlw	1
  3015  1490                     u3455:
  3016  1490  1003               	clrc
  3017  1491  0DF8               	rlf	___lwmod@divisor,f
  3018  1492  0DF9               	rlf	___lwmod@divisor+1,f
  3019  1493  3EFF               	addlw	-1
  3020  1494  1D03               	skipz
  3021  1495  2C90               	goto	u3455
  3022  1496                     l2630:
  3023  1496  3001               	movlw	1
  3024  1497  00FC               	movwf	??___lwmod
  3025  1498  087C               	movf	??___lwmod,w
  3026  1499  07FD               	addwf	___lwmod@counter,f
  3027  149A                     l2632:
  3028  149A  1FF9               	btfss	___lwmod@divisor+1,7
  3029  149B  2C9D               	goto	u3461
  3030  149C  2C9E               	goto	u3460
  3031  149D                     u3461:
  3032  149D  2C8F               	goto	l2628
  3033  149E                     u3460:
  3034  149E                     l2634:
  3035  149E  0879               	movf	___lwmod@divisor+1,w
  3036  149F  027B               	subwf	___lwmod@dividend+1,w
  3037  14A0  1D03               	skipz
  3038  14A1  2CA4               	goto	u3475
  3039  14A2  0878               	movf	___lwmod@divisor,w
  3040  14A3  027A               	subwf	___lwmod@dividend,w
  3041  14A4                     u3475:
  3042  14A4  1C03               	skipc
  3043  14A5  2CA7               	goto	u3471
  3044  14A6  2CA8               	goto	u3470
  3045  14A7                     u3471:
  3046  14A7  2CAE               	goto	l2638
  3047  14A8                     u3470:
  3048  14A8                     l2636:
  3049  14A8  0878               	movf	___lwmod@divisor,w
  3050  14A9  02FA               	subwf	___lwmod@dividend,f
  3051  14AA  0879               	movf	___lwmod@divisor+1,w
  3052  14AB  1C03               	skipc
  3053  14AC  03FB               	decf	___lwmod@dividend+1,f
  3054  14AD  02FB               	subwf	___lwmod@dividend+1,f
  3055  14AE                     l2638:
  3056  14AE  3001               	movlw	1
  3057  14AF                     u3485:
  3058  14AF  1003               	clrc
  3059  14B0  0CF9               	rrf	___lwmod@divisor+1,f
  3060  14B1  0CF8               	rrf	___lwmod@divisor,f
  3061  14B2  3EFF               	addlw	-1
  3062  14B3  1D03               	skipz
  3063  14B4  2CAF               	goto	u3485
  3064  14B5                     l2640:
  3065  14B5  3001               	movlw	1
  3066  14B6  02FD               	subwf	___lwmod@counter,f
  3067  14B7  1D03               	btfss	3,2
  3068  14B8  2CBA               	goto	u3491
  3069  14B9  2CBB               	goto	u3490
  3070  14BA                     u3491:
  3071  14BA  2C9E               	goto	l2634
  3072  14BB                     u3490:
  3073  14BB                     l2642:
  3074  14BB  087B               	movf	___lwmod@dividend+1,w
  3075  14BC  00F9               	movwf	?___lwmod+1
  3076  14BD  087A               	movf	___lwmod@dividend,w
  3077  14BE  00F8               	movwf	?___lwmod
  3078  14BF                     l645:
  3079  14BF  0008               	return
  3080  14C0                     __end_of___lwmod:
  3081                           
  3082                           	psect	text5
  3083  1541                     __ptext5:	
  3084 ;; *************** function ___lwdiv *****************
  3085 ;; Defined at:
  3086 ;;		line 5 in file "C:\Program Files\Microchip\xc8\v2.36\pic\sources\c90\common\lwdiv.c"
  3087 ;; Parameters:    Size  Location     Type
  3088 ;;  divisor         2    0[COMMON] unsigned int 
  3089 ;;  dividend        2    2[COMMON] unsigned int 
  3090 ;; Auto vars:     Size  Location     Type
  3091 ;;  quotient        2    5[COMMON] unsigned int 
  3092 ;;  counter         1    7[COMMON] unsigned char 
  3093 ;; Return value:  Size  Location     Type
  3094 ;;                  2    0[COMMON] unsigned int 
  3095 ;; Registers used:
  3096 ;;		wreg, status,2, status,0
  3097 ;; Tracked objects:
  3098 ;;		On entry : 0/0
  3099 ;;		On exit  : 0/0
  3100 ;;		Unchanged: 0/0
  3101 ;; Data sizes:     COMMON   BANK0   BANK1   BANK3   BANK2
  3102 ;;      Params:         4       0       0       0       0
  3103 ;;      Locals:         3       0       0       0       0
  3104 ;;      Temps:          1       0       0       0       0
  3105 ;;      Totals:         8       0       0       0       0
  3106 ;;Total ram usage:        8 bytes
  3107 ;; Hardware stack levels used: 1
  3108 ;; This function calls:
  3109 ;;		Nothing
  3110 ;; This function is called by:
  3111 ;;		_sprintf
  3112 ;; This function uses a non-reentrant model
  3113 ;;
  3114                           
  3115  1541                     ___lwdiv:	
  3116                           ;psect for function ___lwdiv
  3117                           
  3118  1541                     l2598:	
  3119                           ;incstack = 0
  3120                           ; Regs used in ___lwdiv: [wreg+status,2+status,0]
  3121                           
  3122  1541  01F5               	clrf	___lwdiv@quotient
  3123  1542  01F6               	clrf	___lwdiv@quotient+1
  3124  1543                     l2600:
  3125  1543  0870               	movf	___lwdiv@divisor,w
  3126  1544  0471               	iorwf	___lwdiv@divisor+1,w
  3127  1545  1903               	btfsc	3,2
  3128  1546  2D48               	goto	u3371
  3129  1547  2D49               	goto	u3370
  3130  1548                     u3371:
  3131  1548  2D80               	goto	l2620
  3132  1549                     u3370:
  3133  1549                     l2602:
  3134  1549  01F7               	clrf	___lwdiv@counter
  3135  154A  0AF7               	incf	___lwdiv@counter,f
  3136  154B  2D57               	goto	l2608
  3137  154C                     l2604:
  3138  154C  3001               	movlw	1
  3139  154D                     u3385:
  3140  154D  1003               	clrc
  3141  154E  0DF0               	rlf	___lwdiv@divisor,f
  3142  154F  0DF1               	rlf	___lwdiv@divisor+1,f
  3143  1550  3EFF               	addlw	-1
  3144  1551  1D03               	skipz
  3145  1552  2D4D               	goto	u3385
  3146  1553                     l2606:
  3147  1553  3001               	movlw	1
  3148  1554  00F4               	movwf	??___lwdiv
  3149  1555  0874               	movf	??___lwdiv,w
  3150  1556  07F7               	addwf	___lwdiv@counter,f
  3151  1557                     l2608:
  3152  1557  1FF1               	btfss	___lwdiv@divisor+1,7
  3153  1558  2D5A               	goto	u3391
  3154  1559  2D5B               	goto	u3390
  3155  155A                     u3391:
  3156  155A  2D4C               	goto	l2604
  3157  155B                     u3390:
  3158  155B                     l2610:
  3159  155B  3001               	movlw	1
  3160  155C                     u3405:
  3161  155C  1003               	clrc
  3162  155D  0DF5               	rlf	___lwdiv@quotient,f
  3163  155E  0DF6               	rlf	___lwdiv@quotient+1,f
  3164  155F  3EFF               	addlw	-1
  3165  1560  1D03               	skipz
  3166  1561  2D5C               	goto	u3405
  3167  1562  0871               	movf	___lwdiv@divisor+1,w
  3168  1563  0273               	subwf	___lwdiv@dividend+1,w
  3169  1564  1D03               	skipz
  3170  1565  2D68               	goto	u3415
  3171  1566  0870               	movf	___lwdiv@divisor,w
  3172  1567  0272               	subwf	___lwdiv@dividend,w
  3173  1568                     u3415:
  3174  1568  1C03               	skipc
  3175  1569  2D6B               	goto	u3411
  3176  156A  2D6C               	goto	u3410
  3177  156B                     u3411:
  3178  156B  2D73               	goto	l2616
  3179  156C                     u3410:
  3180  156C                     l2612:
  3181  156C  0870               	movf	___lwdiv@divisor,w
  3182  156D  02F2               	subwf	___lwdiv@dividend,f
  3183  156E  0871               	movf	___lwdiv@divisor+1,w
  3184  156F  1C03               	skipc
  3185  1570  03F3               	decf	___lwdiv@dividend+1,f
  3186  1571  02F3               	subwf	___lwdiv@dividend+1,f
  3187  1572                     l2614:
  3188  1572  1475               	bsf	___lwdiv@quotient,0
  3189  1573                     l2616:
  3190  1573  3001               	movlw	1
  3191  1574                     u3425:
  3192  1574  1003               	clrc
  3193  1575  0CF1               	rrf	___lwdiv@divisor+1,f
  3194  1576  0CF0               	rrf	___lwdiv@divisor,f
  3195  1577  3EFF               	addlw	-1
  3196  1578  1D03               	skipz
  3197  1579  2D74               	goto	u3425
  3198  157A                     l2618:
  3199  157A  3001               	movlw	1
  3200  157B  02F7               	subwf	___lwdiv@counter,f
  3201  157C  1D03               	btfss	3,2
  3202  157D  2D7F               	goto	u3431
  3203  157E  2D80               	goto	u3430
  3204  157F                     u3431:
  3205  157F  2D5B               	goto	l2610
  3206  1580                     u3430:
  3207  1580                     l2620:
  3208  1580  0876               	movf	___lwdiv@quotient+1,w
  3209  1581  00F1               	movwf	?___lwdiv+1
  3210  1582  0875               	movf	___lwdiv@quotient,w
  3211  1583  00F0               	movwf	?___lwdiv
  3212  1584                     l635:
  3213  1584  0008               	return
  3214  1585                     __end_of___lwdiv:
  3215                           
  3216                           	psect	text6
  3217  0A4F                     __ptext6:	
  3218 ;; *************** function _log *****************
  3219 ;; Defined at:
  3220 ;;		line 5 in file "C:\Program Files\Microchip\xc8\v2.36\pic\sources\c90\common\log.c"
  3221 ;; Parameters:    Size  Location     Type
  3222 ;;  x               4   16[BANK1 ] unsigned int 
  3223 ;; Auto vars:     Size  Location     Type
  3224 ;;  exponent        2   20[BANK1 ] int 
  3225 ;; Return value:  Size  Location     Type
  3226 ;;                  4   16[BANK1 ] int 
  3227 ;; Registers used:
  3228 ;;		wreg, fsr0l, fsr0h, status,2, status,0, btemp+1, pclath, cstack
  3229 ;; Tracked objects:
  3230 ;;		On entry : 0/0
  3231 ;;		On exit  : 0/0
  3232 ;;		Unchanged: 0/0
  3233 ;; Data sizes:     COMMON   BANK0   BANK1   BANK3   BANK2
  3234 ;;      Params:         0       0       4       0       0
  3235 ;;      Locals:         0       0       2       0       0
  3236 ;;      Temps:          0       1       0       0       0
  3237 ;;      Totals:         0       1       6       0       0
  3238 ;;Total ram usage:        7 bytes
  3239 ;; Hardware stack levels used: 1
  3240 ;; Hardware stack levels required when called: 3
  3241 ;; This function calls:
  3242 ;;		___fladd
  3243 ;;		___fleq
  3244 ;;		___flge
  3245 ;;		___flmul
  3246 ;;		___xxtofl
  3247 ;;		_eval_poly
  3248 ;;		_frexp
  3249 ;; This function is called by:
  3250 ;;		_main
  3251 ;; This function uses a non-reentrant model
  3252 ;;
  3253                           
  3254  0A4F                     _log:	
  3255                           ;psect for function _log
  3256                           
  3257  0A4F                     l2766:	
  3258                           ;incstack = 0
  3259                           ; Regs used in _log: [wreg-fsr0h+status,2+status,0+btemp+1+pclath+cstack]
  3260                           
  3261  0A4F  1683               	bsf	3,5	;RP0=1, select bank1
  3262  0A50  1303               	bcf	3,6	;RP1=0, select bank1
  3263  0A51  0833               	movf	(log@x+3)^(0+128),w
  3264  0A52  00F3               	movwf	___flge@ff1+3
  3265  0A53  0832               	movf	(log@x+2)^(0+128),w
  3266  0A54  00F2               	movwf	___flge@ff1+2
  3267  0A55  0831               	movf	(log@x+1)^(0+128),w
  3268  0A56  00F1               	movwf	___flge@ff1+1
  3269  0A57  0830               	movf	log@x^(0+128),w
  3270  0A58  00F0               	movwf	___flge@ff1
  3271  0A59  3000               	movlw	0
  3272  0A5A  00F7               	movwf	___flge@ff2+3
  3273  0A5B  3000               	movlw	0
  3274  0A5C  00F6               	movwf	___flge@ff2+2
  3275  0A5D  3000               	movlw	0
  3276  0A5E  00F5               	movwf	___flge@ff2+1
  3277  0A5F  3000               	movlw	0
  3278  0A60  00F4               	movwf	___flge@ff2
  3279  0A61  120A  118A  2018  120A  158A  	fcall	___flge
  3280  0A66  1803               	btfsc	3,0
  3281  0A67  2A69               	goto	u3721
  3282  0A68  2A6A               	goto	u3720
  3283  0A69                     u3721:
  3284  0A69  2A79               	goto	l2772
  3285  0A6A                     u3720:
  3286  0A6A                     l2768:
  3287  0A6A  3021               	movlw	33
  3288  0A6B  1683               	bsf	3,5	;RP0=1, select bank1
  3289  0A6C  1303               	bcf	3,6	;RP1=0, select bank1
  3290  0A6D  00D1               	movwf	_errno^(0+128)
  3291  0A6E  3000               	movlw	0
  3292  0A6F  00D2               	movwf	(_errno^(0+128)+1)
  3293  0A70  3000               	movlw	0
  3294  0A71  00B3               	movwf	(?_log+3)^(0+128)
  3295  0A72  3000               	movlw	0
  3296  0A73  00B2               	movwf	(?_log+2)^(0+128)
  3297  0A74  3000               	movlw	0
  3298  0A75  00B1               	movwf	(?_log+1)^(0+128)
  3299  0A76  3000               	movlw	0
  3300  0A77  00B0               	movwf	?_log^(0+128)
  3301  0A78  2B9A               	goto	l823
  3302  0A79                     l2772:
  3303  0A79  1683               	bsf	3,5	;RP0=1, select bank1
  3304  0A7A  1303               	bcf	3,6	;RP1=0, select bank1
  3305  0A7B  0833               	movf	(log@x+3)^(0+128),w
  3306  0A7C  00F3               	movwf	___fleq@ff1+3
  3307  0A7D  0832               	movf	(log@x+2)^(0+128),w
  3308  0A7E  00F2               	movwf	___fleq@ff1+2
  3309  0A7F  0831               	movf	(log@x+1)^(0+128),w
  3310  0A80  00F1               	movwf	___fleq@ff1+1
  3311  0A81  0830               	movf	log@x^(0+128),w
  3312  0A82  00F0               	movwf	___fleq@ff1
  3313  0A83  3000               	movlw	0
  3314  0A84  00F7               	movwf	___fleq@ff2+3
  3315  0A85  3000               	movlw	0
  3316  0A86  00F6               	movwf	___fleq@ff2+2
  3317  0A87  3000               	movlw	0
  3318  0A88  00F5               	movwf	___fleq@ff2+1
  3319  0A89  3000               	movlw	0
  3320  0A8A  00F4               	movwf	___fleq@ff2
  3321  0A8B  160A  118A  2585  120A  158A  	fcall	___fleq
  3322  0A90  1C03               	btfss	3,0
  3323  0A91  2A93               	goto	u3731
  3324  0A92  2A94               	goto	u3730
  3325  0A93                     u3731:
  3326  0A93  2AA3               	goto	l2778
  3327  0A94                     u3730:
  3328  0A94                     l2774:
  3329  0A94  3022               	movlw	34
  3330  0A95  1683               	bsf	3,5	;RP0=1, select bank1
  3331  0A96  1303               	bcf	3,6	;RP1=0, select bank1
  3332  0A97  00D1               	movwf	_errno^(0+128)
  3333  0A98  3000               	movlw	0
  3334  0A99  00D2               	movwf	(_errno^(0+128)+1)
  3335  0A9A  3000               	movlw	0
  3336  0A9B  00B3               	movwf	(?_log+3)^(0+128)
  3337  0A9C  3000               	movlw	0
  3338  0A9D  00B2               	movwf	(?_log+2)^(0+128)
  3339  0A9E  3000               	movlw	0
  3340  0A9F  00B1               	movwf	(?_log+1)^(0+128)
  3341  0AA0  3000               	movlw	0
  3342  0AA1  00B0               	movwf	?_log^(0+128)
  3343  0AA2  2B9A               	goto	l823
  3344  0AA3                     l2778:
  3345  0AA3  30BF               	movlw	191
  3346  0AA4  1283               	bcf	3,5	;RP0=0, select bank0
  3347  0AA5  1303               	bcf	3,6	;RP1=0, select bank0
  3348  0AA6  00DC               	movwf	___fladd@b+3
  3349  0AA7  3080               	movlw	128
  3350  0AA8  00DB               	movwf	___fladd@b+2
  3351  0AA9  3000               	movlw	0
  3352  0AAA  00DA               	movwf	___fladd@b+1
  3353  0AAB  3000               	movlw	0
  3354  0AAC  00D9               	movwf	___fladd@b
  3355  0AAD  3040               	movlw	64
  3356  0AAE  00A8               	movwf	___flmul@b+3
  3357  0AAF  3000               	movlw	0
  3358  0AB0  00A7               	movwf	___flmul@b+2
  3359  0AB1  3000               	movlw	0
  3360  0AB2  00A6               	movwf	___flmul@b+1
  3361  0AB3  3000               	movlw	0
  3362  0AB4  00A5               	movwf	___flmul@b
  3363  0AB5  30B4               	movlw	(low (log@exponent| 0))& (0+255)
  3364  0AB6  00ED               	movwf	??_log
  3365  0AB7  086D               	movf	??_log,w
  3366  0AB8  00A4               	movwf	frexp@eptr
  3367  0AB9  1683               	bsf	3,5	;RP0=1, select bank1
  3368  0ABA  1303               	bcf	3,6	;RP1=0, select bank1
  3369  0ABB  0833               	movf	(log@x+3)^(0+128),w
  3370  0ABC  1283               	bcf	3,5	;RP0=0, select bank0
  3371  0ABD  1303               	bcf	3,6	;RP1=0, select bank0
  3372  0ABE  00A3               	movwf	frexp@value+3
  3373  0ABF  1683               	bsf	3,5	;RP0=1, select bank1
  3374  0AC0  1303               	bcf	3,6	;RP1=0, select bank1
  3375  0AC1  0832               	movf	(log@x+2)^(0+128),w
  3376  0AC2  1283               	bcf	3,5	;RP0=0, select bank0
  3377  0AC3  1303               	bcf	3,6	;RP1=0, select bank0
  3378  0AC4  00A2               	movwf	frexp@value+2
  3379  0AC5  1683               	bsf	3,5	;RP0=1, select bank1
  3380  0AC6  1303               	bcf	3,6	;RP1=0, select bank1
  3381  0AC7  0831               	movf	(log@x+1)^(0+128),w
  3382  0AC8  1283               	bcf	3,5	;RP0=0, select bank0
  3383  0AC9  1303               	bcf	3,6	;RP1=0, select bank0
  3384  0ACA  00A1               	movwf	frexp@value+1
  3385  0ACB  1683               	bsf	3,5	;RP0=1, select bank1
  3386  0ACC  1303               	bcf	3,6	;RP1=0, select bank1
  3387  0ACD  0830               	movf	log@x^(0+128),w
  3388  0ACE  1283               	bcf	3,5	;RP0=0, select bank0
  3389  0ACF  1303               	bcf	3,6	;RP1=0, select bank0
  3390  0AD0  00A0               	movwf	frexp@value
  3391  0AD1  160A  118A  25D3  120A  158A  	fcall	_frexp
  3392  0AD6  1283               	bcf	3,5	;RP0=0, select bank0
  3393  0AD7  1303               	bcf	3,6	;RP1=0, select bank0
  3394  0AD8  0823               	movf	?_frexp+3,w
  3395  0AD9  00AC               	movwf	___flmul@a+3
  3396  0ADA  0822               	movf	?_frexp+2,w
  3397  0ADB  00AB               	movwf	___flmul@a+2
  3398  0ADC  0821               	movf	?_frexp+1,w
  3399  0ADD  00AA               	movwf	___flmul@a+1
  3400  0ADE  0820               	movf	?_frexp,w
  3401  0ADF  00A9               	movwf	___flmul@a
  3402  0AE0  120A  118A  20BA  120A  158A  	fcall	___flmul
  3403  0AE5  1283               	bcf	3,5	;RP0=0, select bank0
  3404  0AE6  1303               	bcf	3,6	;RP1=0, select bank0
  3405  0AE7  0828               	movf	?___flmul+3,w
  3406  0AE8  00E0               	movwf	___fladd@a+3
  3407  0AE9  0827               	movf	?___flmul+2,w
  3408  0AEA  00DF               	movwf	___fladd@a+2
  3409  0AEB  0826               	movf	?___flmul+1,w
  3410  0AEC  00DE               	movwf	___fladd@a+1
  3411  0AED  0825               	movf	?___flmul,w
  3412  0AEE  00DD               	movwf	___fladd@a
  3413  0AEF  120A  158A  2578  120A  158A  	fcall	___fladd
  3414  0AF4  1283               	bcf	3,5	;RP0=0, select bank0
  3415  0AF5  1303               	bcf	3,6	;RP1=0, select bank0
  3416  0AF6  085C               	movf	?___fladd+3,w
  3417  0AF7  1683               	bsf	3,5	;RP0=1, select bank1
  3418  0AF8  1303               	bcf	3,6	;RP1=0, select bank1
  3419  0AF9  00B3               	movwf	(log@x+3)^(0+128)
  3420  0AFA  1283               	bcf	3,5	;RP0=0, select bank0
  3421  0AFB  1303               	bcf	3,6	;RP1=0, select bank0
  3422  0AFC  085B               	movf	?___fladd+2,w
  3423  0AFD  1683               	bsf	3,5	;RP0=1, select bank1
  3424  0AFE  1303               	bcf	3,6	;RP1=0, select bank1
  3425  0AFF  00B2               	movwf	(log@x+2)^(0+128)
  3426  0B00  1283               	bcf	3,5	;RP0=0, select bank0
  3427  0B01  1303               	bcf	3,6	;RP1=0, select bank0
  3428  0B02  085A               	movf	?___fladd+1,w
  3429  0B03  1683               	bsf	3,5	;RP0=1, select bank1
  3430  0B04  1303               	bcf	3,6	;RP1=0, select bank1
  3431  0B05  00B1               	movwf	(log@x+1)^(0+128)
  3432  0B06  1283               	bcf	3,5	;RP0=0, select bank0
  3433  0B07  1303               	bcf	3,6	;RP1=0, select bank0
  3434  0B08  0859               	movf	?___fladd,w
  3435  0B09  1683               	bsf	3,5	;RP0=1, select bank1
  3436  0B0A  1303               	bcf	3,6	;RP1=0, select bank1
  3437  0B0B  00B0               	movwf	log@x^(0+128)
  3438  0B0C                     l2780:
  3439  0B0C  30FF               	movlw	255
  3440  0B0D  07B4               	addwf	log@exponent^(0+128),f
  3441  0B0E  1803               	skipnc
  3442  0B0F  0AB5               	incf	(log@exponent+1)^(0+128),f
  3443  0B10  30FF               	movlw	255
  3444  0B11  07B5               	addwf	(log@exponent+1)^(0+128),f
  3445  0B12                     l2782:
  3446  0B12  0833               	movf	(log@x+3)^(0+128),w
  3447  0B13  00A3               	movwf	(eval_poly@x+3)^(0+128)
  3448  0B14  0832               	movf	(log@x+2)^(0+128),w
  3449  0B15  00A2               	movwf	(eval_poly@x+2)^(0+128)
  3450  0B16  0831               	movf	(log@x+1)^(0+128),w
  3451  0B17  00A1               	movwf	(eval_poly@x+1)^(0+128)
  3452  0B18  0830               	movf	log@x^(0+128),w
  3453  0B19  00A0               	movwf	eval_poly@x^(0+128)
  3454  0B1A  300B               	movlw	(low ((log@coeff-__stringbase)| (0+32768)))& (0+255)
  3455  0B1B  1283               	bcf	3,5	;RP0=0, select bank0
  3456  0B1C  1303               	bcf	3,6	;RP1=0, select bank0
  3457  0B1D  00ED               	movwf	??_log
  3458  0B1E  086D               	movf	??_log,w
  3459  0B1F  1683               	bsf	3,5	;RP0=1, select bank1
  3460  0B20  1303               	bcf	3,6	;RP1=0, select bank1
  3461  0B21  00A4               	movwf	eval_poly@d^(0+128)
  3462  0B22  3008               	movlw	8
  3463  0B23  00A5               	movwf	eval_poly@n^(0+128)
  3464  0B24  3000               	movlw	0
  3465  0B25  00A6               	movwf	(eval_poly@n^(0+128)+1)
  3466  0B26  120A  158A  2072  120A  158A  	fcall	_eval_poly
  3467  0B2B  1683               	bsf	3,5	;RP0=1, select bank1
  3468  0B2C  1303               	bcf	3,6	;RP1=0, select bank1
  3469  0B2D  0823               	movf	(?_eval_poly+3)^(0+128),w
  3470  0B2E  00B3               	movwf	(log@x+3)^(0+128)
  3471  0B2F  0822               	movf	(?_eval_poly+2)^(0+128),w
  3472  0B30  00B2               	movwf	(log@x+2)^(0+128)
  3473  0B31  0821               	movf	(?_eval_poly+1)^(0+128),w
  3474  0B32  00B1               	movwf	(log@x+1)^(0+128)
  3475  0B33  0820               	movf	?_eval_poly^(0+128),w
  3476  0B34  00B0               	movwf	log@x^(0+128)
  3477  0B35                     l2784:
  3478  0B35  0833               	movf	(log@x+3)^(0+128),w
  3479  0B36  1283               	bcf	3,5	;RP0=0, select bank0
  3480  0B37  1303               	bcf	3,6	;RP1=0, select bank0
  3481  0B38  00DC               	movwf	___fladd@b+3
  3482  0B39  1683               	bsf	3,5	;RP0=1, select bank1
  3483  0B3A  1303               	bcf	3,6	;RP1=0, select bank1
  3484  0B3B  0832               	movf	(log@x+2)^(0+128),w
  3485  0B3C  1283               	bcf	3,5	;RP0=0, select bank0
  3486  0B3D  1303               	bcf	3,6	;RP1=0, select bank0
  3487  0B3E  00DB               	movwf	___fladd@b+2
  3488  0B3F  1683               	bsf	3,5	;RP0=1, select bank1
  3489  0B40  1303               	bcf	3,6	;RP1=0, select bank1
  3490  0B41  0831               	movf	(log@x+1)^(0+128),w
  3491  0B42  1283               	bcf	3,5	;RP0=0, select bank0
  3492  0B43  1303               	bcf	3,6	;RP1=0, select bank0
  3493  0B44  00DA               	movwf	___fladd@b+1
  3494  0B45  1683               	bsf	3,5	;RP0=1, select bank1
  3495  0B46  1303               	bcf	3,6	;RP1=0, select bank1
  3496  0B47  0830               	movf	log@x^(0+128),w
  3497  0B48  1283               	bcf	3,5	;RP0=0, select bank0
  3498  0B49  1303               	bcf	3,6	;RP1=0, select bank0
  3499  0B4A  00D9               	movwf	___fladd@b
  3500  0B4B  303F               	movlw	63
  3501  0B4C  00A8               	movwf	___flmul@b+3
  3502  0B4D  3031               	movlw	49
  3503  0B4E  00A7               	movwf	___flmul@b+2
  3504  0B4F  3072               	movlw	114
  3505  0B50  00A6               	movwf	___flmul@b+1
  3506  0B51  3018               	movlw	24
  3507  0B52  00A5               	movwf	___flmul@b
  3508  0B53  1683               	bsf	3,5	;RP0=1, select bank1
  3509  0B54  1303               	bcf	3,6	;RP1=0, select bank1
  3510  0B55  0834               	movf	log@exponent^(0+128),w
  3511  0B56  00F0               	movwf	___xxtofl@val
  3512  0B57  0835               	movf	(log@exponent+1)^(0+128),w
  3513  0B58  00F1               	movwf	___xxtofl@val+1
  3514  0B59  3000               	movlw	0
  3515  0B5A  1BF1               	btfsc	___xxtofl@val+1,7
  3516  0B5B  30FF               	movlw	255
  3517  0B5C  00F2               	movwf	___xxtofl@val+2
  3518  0B5D  00F3               	movwf	___xxtofl@val+3
  3519  0B5E  3001               	movlw	1
  3520  0B5F  160A  118A  2746  120A  158A  	fcall	___xxtofl
  3521  0B64  0873               	movf	?___xxtofl+3,w
  3522  0B65  1283               	bcf	3,5	;RP0=0, select bank0
  3523  0B66  1303               	bcf	3,6	;RP1=0, select bank0
  3524  0B67  00AC               	movwf	___flmul@a+3
  3525  0B68  0872               	movf	?___xxtofl+2,w
  3526  0B69  00AB               	movwf	___flmul@a+2
  3527  0B6A  0871               	movf	?___xxtofl+1,w
  3528  0B6B  00AA               	movwf	___flmul@a+1
  3529  0B6C  0870               	movf	?___xxtofl,w
  3530  0B6D  00A9               	movwf	___flmul@a
  3531  0B6E  120A  118A  20BA  120A  158A  	fcall	___flmul
  3532  0B73  1283               	bcf	3,5	;RP0=0, select bank0
  3533  0B74  1303               	bcf	3,6	;RP1=0, select bank0
  3534  0B75  0828               	movf	?___flmul+3,w
  3535  0B76  00E0               	movwf	___fladd@a+3
  3536  0B77  0827               	movf	?___flmul+2,w
  3537  0B78  00DF               	movwf	___fladd@a+2
  3538  0B79  0826               	movf	?___flmul+1,w
  3539  0B7A  00DE               	movwf	___fladd@a+1
  3540  0B7B  0825               	movf	?___flmul,w
  3541  0B7C  00DD               	movwf	___fladd@a
  3542  0B7D  120A  158A  2578  120A  158A  	fcall	___fladd
  3543  0B82  1283               	bcf	3,5	;RP0=0, select bank0
  3544  0B83  1303               	bcf	3,6	;RP1=0, select bank0
  3545  0B84  085C               	movf	?___fladd+3,w
  3546  0B85  1683               	bsf	3,5	;RP0=1, select bank1
  3547  0B86  1303               	bcf	3,6	;RP1=0, select bank1
  3548  0B87  00B3               	movwf	(?_log+3)^(0+128)
  3549  0B88  1283               	bcf	3,5	;RP0=0, select bank0
  3550  0B89  1303               	bcf	3,6	;RP1=0, select bank0
  3551  0B8A  085B               	movf	?___fladd+2,w
  3552  0B8B  1683               	bsf	3,5	;RP0=1, select bank1
  3553  0B8C  1303               	bcf	3,6	;RP1=0, select bank1
  3554  0B8D  00B2               	movwf	(?_log+2)^(0+128)
  3555  0B8E  1283               	bcf	3,5	;RP0=0, select bank0
  3556  0B8F  1303               	bcf	3,6	;RP1=0, select bank0
  3557  0B90  085A               	movf	?___fladd+1,w
  3558  0B91  1683               	bsf	3,5	;RP0=1, select bank1
  3559  0B92  1303               	bcf	3,6	;RP1=0, select bank1
  3560  0B93  00B1               	movwf	(?_log+1)^(0+128)
  3561  0B94  1283               	bcf	3,5	;RP0=0, select bank0
  3562  0B95  1303               	bcf	3,6	;RP1=0, select bank0
  3563  0B96  0859               	movf	?___fladd,w
  3564  0B97  1683               	bsf	3,5	;RP0=1, select bank1
  3565  0B98  1303               	bcf	3,6	;RP1=0, select bank1
  3566  0B99  00B0               	movwf	?_log^(0+128)
  3567  0B9A                     l823:
  3568  0B9A  0008               	return
  3569  0B9B                     __end_of_log:
  3570                           
  3571                           	psect	text7
  3572  15D3                     __ptext7:	
  3573 ;; *************** function _frexp *****************
  3574 ;; Defined at:
  3575 ;;		line 254 in file "C:\Program Files\Microchip\xc8\v2.36\pic\sources\c90\common\frexp.c"
  3576 ;; Parameters:    Size  Location     Type
  3577 ;;  value           4    0[BANK0 ] int 
  3578 ;;  eptr            1    4[BANK0 ] PTR int 
  3579 ;;		 -> log@exponent(2), 
  3580 ;; Auto vars:     Size  Location     Type
  3581 ;;		None
  3582 ;; Return value:  Size  Location     Type
  3583 ;;                  4    0[BANK0 ] PTR int 
  3584 ;; Registers used:
  3585 ;;		wreg, fsr0l, fsr0h, status,2, status,0, btemp+1, pclath, cstack
  3586 ;; Tracked objects:
  3587 ;;		On entry : 0/0
  3588 ;;		On exit  : 0/0
  3589 ;;		Unchanged: 0/0
  3590 ;; Data sizes:     COMMON   BANK0   BANK1   BANK3   BANK2
  3591 ;;      Params:         0       5       0       0       0
  3592 ;;      Locals:         0       0       0       0       0
  3593 ;;      Temps:          2       0       0       0       0
  3594 ;;      Totals:         2       5       0       0       0
  3595 ;;Total ram usage:        7 bytes
  3596 ;; Hardware stack levels used: 1
  3597 ;; Hardware stack levels required when called: 1
  3598 ;; This function calls:
  3599 ;;		___fleq
  3600 ;; This function is called by:
  3601 ;;		_log
  3602 ;; This function uses a non-reentrant model
  3603 ;;
  3604                           
  3605  15D3                     _frexp:	
  3606                           ;psect for function _frexp
  3607                           
  3608  15D3                     l2690:	
  3609                           ;incstack = 0
  3610                           ; Regs used in _frexp: [wreg-fsr0h+status,2+status,0+btemp+1+pclath+cstack]
  3611                           
  3612  15D3  1283               	bcf	3,5	;RP0=0, select bank0
  3613  15D4  1303               	bcf	3,6	;RP1=0, select bank0
  3614  15D5  0823               	movf	frexp@value+3,w
  3615  15D6  00F3               	movwf	___fleq@ff1+3
  3616  15D7  0822               	movf	frexp@value+2,w
  3617  15D8  00F2               	movwf	___fleq@ff1+2
  3618  15D9  0821               	movf	frexp@value+1,w
  3619  15DA  00F1               	movwf	___fleq@ff1+1
  3620  15DB  0820               	movf	frexp@value,w
  3621  15DC  00F0               	movwf	___fleq@ff1
  3622  15DD  3000               	movlw	0
  3623  15DE  00F7               	movwf	___fleq@ff2+3
  3624  15DF  3000               	movlw	0
  3625  15E0  00F6               	movwf	___fleq@ff2+2
  3626  15E1  3000               	movlw	0
  3627  15E2  00F5               	movwf	___fleq@ff2+1
  3628  15E3  3000               	movlw	0
  3629  15E4  00F4               	movwf	___fleq@ff2
  3630  15E5  160A  118A  2585  160A  118A  	fcall	___fleq
  3631  15EA  1C03               	btfss	3,0
  3632  15EB  2DED               	goto	u3641
  3633  15EC  2DEE               	goto	u3640
  3634  15ED                     u3641:
  3635  15ED  2DFF               	goto	l2698
  3636  15EE                     u3640:
  3637  15EE                     l2692:
  3638  15EE  1283               	bcf	3,5	;RP0=0, select bank0
  3639  15EF  1303               	bcf	3,6	;RP1=0, select bank0
  3640  15F0  0824               	movf	frexp@eptr,w
  3641  15F1  0084               	movwf	4
  3642  15F2  1383               	bcf	3,7	;select IRP bank0
  3643  15F3  0180               	clrf	0
  3644  15F4  0A84               	incf	4,f
  3645  15F5  0180               	clrf	0
  3646  15F6                     l2694:
  3647  15F6  3000               	movlw	0
  3648  15F7  00A3               	movwf	?_frexp+3
  3649  15F8  3000               	movlw	0
  3650  15F9  00A2               	movwf	?_frexp+2
  3651  15FA  3000               	movlw	0
  3652  15FB  00A1               	movwf	?_frexp+1
  3653  15FC  3000               	movlw	0
  3654  15FD  00A0               	movwf	?_frexp
  3655  15FE  2E2E               	goto	l841
  3656  15FF                     l2698:
  3657  15FF  1283               	bcf	3,5	;RP0=0, select bank0
  3658  1600  1303               	bcf	3,6	;RP1=0, select bank0
  3659  1601  0823               	movf	frexp@value+3,w
  3660  1602  397F               	andlw	127
  3661  1603  00FC               	movwf	??_frexp
  3662  1604  01FD               	clrf	??_frexp+1
  3663  1605  1003               	clrc
  3664  1606  0DFC               	rlf	??_frexp,f
  3665  1607  0DFD               	rlf	??_frexp+1,f
  3666  1608  0824               	movf	frexp@eptr,w
  3667  1609  0084               	movwf	4
  3668  160A  087C               	movf	??_frexp,w
  3669  160B  1383               	bcf	3,7	;select IRP bank0
  3670  160C  0080               	movwf	0
  3671  160D  0A84               	incf	4,f
  3672  160E  087D               	movf	??_frexp+1,w
  3673  160F  0080               	movwf	0
  3674  1610  0D22               	rlf	frexp@value+2,w
  3675  1611  0D22               	rlf	frexp@value+2,w
  3676  1612  3901               	andlw	1
  3677  1613  00FC               	movwf	??_frexp
  3678  1614  01FD               	clrf	??_frexp+1
  3679  1615  0824               	movf	frexp@eptr,w
  3680  1616  0084               	movwf	4
  3681  1617  087C               	movf	??_frexp,w
  3682  1618  0480               	iorwf	0,f
  3683  1619  0A84               	incf	4,f
  3684  161A  087D               	movf	??_frexp+1,w
  3685  161B  0480               	iorwf	0,f
  3686  161C                     l2700:
  3687  161C  0824               	movf	frexp@eptr,w
  3688  161D  0084               	movwf	4
  3689  161E  3082               	movlw	130
  3690  161F  0780               	addwf	0,f
  3691  1620  0F84               	incfsz	4,f
  3692  1621  0800               	movf	0,w
  3693  1622  1803               	skipnc
  3694  1623  0A00               	incf	0,w
  3695  1624  00FF               	movwf	btemp+1
  3696  1625  30FF               	movlw	255
  3697  1626  077F               	addwf	btemp+1,w
  3698  1627  0080               	movwf	0
  3699  1628  0384               	decf	4,f
  3700  1629                     l2702:
  3701  1629  0823               	movf	frexp@value+3,w
  3702  162A  3980               	andlw	-128
  3703  162B  383F               	iorlw	63
  3704  162C  00A3               	movwf	frexp@value+3
  3705  162D                     l2704:
  3706  162D  13A2               	bcf	frexp@value+2,7
  3707  162E                     l2706:
  3708  162E                     l841:
  3709  162E  0008               	return
  3710  162F                     __end_of_frexp:
  3711                           
  3712                           	psect	text8
  3713  1585                     __ptext8:	
  3714 ;; *************** function ___fleq *****************
  3715 ;; Defined at:
  3716 ;;		line 4 in file "C:\Program Files\Microchip\xc8\v2.36\pic\sources\c90\common\fleq.c"
  3717 ;; Parameters:    Size  Location     Type
  3718 ;;  ff1             4    0[COMMON] PTR int 
  3719 ;;  ff2             4    4[COMMON] PTR int 
  3720 ;; Auto vars:     Size  Location     Type
  3721 ;;		None
  3722 ;; Return value:  Size  Location     Type
  3723 ;;		None               void
  3724 ;; Registers used:
  3725 ;;		wreg, status,2, status,0
  3726 ;; Tracked objects:
  3727 ;;		On entry : 0/0
  3728 ;;		On exit  : 0/0
  3729 ;;		Unchanged: 0/0
  3730 ;; Data sizes:     COMMON   BANK0   BANK1   BANK3   BANK2
  3731 ;;      Params:         8       0       0       0       0
  3732 ;;      Locals:         0       0       0       0       0
  3733 ;;      Temps:          4       0       0       0       0
  3734 ;;      Totals:        12       0       0       0       0
  3735 ;;Total ram usage:       12 bytes
  3736 ;; Hardware stack levels used: 1
  3737 ;; This function calls:
  3738 ;;		Nothing
  3739 ;; This function is called by:
  3740 ;;		_log
  3741 ;;		_frexp
  3742 ;; This function uses a non-reentrant model
  3743 ;;
  3744                           
  3745  1585                     ___fleq:	
  3746                           ;psect for function ___fleq
  3747                           
  3748  1585                     l2160:	
  3749                           ;incstack = 0
  3750                           ; Regs used in ___fleq: [wreg+status,2+status,0]
  3751                           
  3752  1585  3000               	movlw	0
  3753  1586  0570               	andwf	___fleq@ff1,w
  3754  1587  00F8               	movwf	??___fleq
  3755  1588  3000               	movlw	0
  3756  1589  0571               	andwf	___fleq@ff1+1,w
  3757  158A  00F9               	movwf	??___fleq+1
  3758  158B  3080               	movlw	128
  3759  158C  0572               	andwf	___fleq@ff1+2,w
  3760  158D  00FA               	movwf	??___fleq+2
  3761  158E  307F               	movlw	127
  3762  158F  0573               	andwf	___fleq@ff1+3,w
  3763  1590  00FB               	movwf	??___fleq+3
  3764  1591  087B               	movf	??___fleq+3,w
  3765  1592  047A               	iorwf	??___fleq+2,w
  3766  1593  0479               	iorwf	??___fleq+1,w
  3767  1594  0478               	iorwf	??___fleq,w
  3768  1595  1D03               	skipz
  3769  1596  2D98               	goto	u2311
  3770  1597  2D99               	goto	u2310
  3771  1598                     u2311:
  3772  1598  2DA1               	goto	l532
  3773  1599                     u2310:
  3774  1599                     l2162:
  3775  1599  3000               	movlw	0
  3776  159A  00F3               	movwf	___fleq@ff1+3
  3777  159B  3000               	movlw	0
  3778  159C  00F2               	movwf	___fleq@ff1+2
  3779  159D  3000               	movlw	0
  3780  159E  00F1               	movwf	___fleq@ff1+1
  3781  159F  3000               	movlw	0
  3782  15A0  00F0               	movwf	___fleq@ff1
  3783  15A1                     l532:
  3784  15A1  3000               	movlw	0
  3785  15A2  0574               	andwf	___fleq@ff2,w
  3786  15A3  00F8               	movwf	??___fleq
  3787  15A4  3000               	movlw	0
  3788  15A5  0575               	andwf	___fleq@ff2+1,w
  3789  15A6  00F9               	movwf	??___fleq+1
  3790  15A7  3080               	movlw	128
  3791  15A8  0576               	andwf	___fleq@ff2+2,w
  3792  15A9  00FA               	movwf	??___fleq+2
  3793  15AA  307F               	movlw	127
  3794  15AB  0577               	andwf	___fleq@ff2+3,w
  3795  15AC  00FB               	movwf	??___fleq+3
  3796  15AD  087B               	movf	??___fleq+3,w
  3797  15AE  047A               	iorwf	??___fleq+2,w
  3798  15AF  0479               	iorwf	??___fleq+1,w
  3799  15B0  0478               	iorwf	??___fleq,w
  3800  15B1  1D03               	skipz
  3801  15B2  2DB4               	goto	u2321
  3802  15B3  2DB5               	goto	u2320
  3803  15B4                     u2321:
  3804  15B4  2DBD               	goto	l533
  3805  15B5                     u2320:
  3806  15B5                     l2164:
  3807  15B5  3000               	movlw	0
  3808  15B6  00F7               	movwf	___fleq@ff2+3
  3809  15B7  3000               	movlw	0
  3810  15B8  00F6               	movwf	___fleq@ff2+2
  3811  15B9  3000               	movlw	0
  3812  15BA  00F5               	movwf	___fleq@ff2+1
  3813  15BB  3000               	movlw	0
  3814  15BC  00F4               	movwf	___fleq@ff2
  3815  15BD                     l533:
  3816  15BD  0877               	movf	___fleq@ff2+3,w
  3817  15BE  0673               	xorwf	___fleq@ff1+3,w
  3818  15BF  1D03               	skipz
  3819  15C0  2DCB               	goto	u2335
  3820  15C1  0876               	movf	___fleq@ff2+2,w
  3821  15C2  0672               	xorwf	___fleq@ff1+2,w
  3822  15C3  1D03               	skipz
  3823  15C4  2DCB               	goto	u2335
  3824  15C5  0875               	movf	___fleq@ff2+1,w
  3825  15C6  0671               	xorwf	___fleq@ff1+1,w
  3826  15C7  1D03               	skipz
  3827  15C8  2DCB               	goto	u2335
  3828  15C9  0874               	movf	___fleq@ff2,w
  3829  15CA  0670               	xorwf	___fleq@ff1,w
  3830  15CB                     u2335:
  3831  15CB  1903               	skipnz
  3832  15CC  2DCE               	goto	u2331
  3833  15CD  2DCF               	goto	u2330
  3834  15CE                     u2331:
  3835  15CE  2DD1               	goto	l2168
  3836  15CF                     u2330:
  3837  15CF                     l2166:
  3838  15CF  1003               	clrc
  3839  15D0  2DD2               	goto	l534
  3840  15D1                     l2168:
  3841  15D1  1403               	setc
  3842  15D2                     l534:
  3843  15D2  0008               	return
  3844  15D3                     __end_of___fleq:
  3845                           
  3846                           	psect	text9
  3847  0872                     __ptext9:	
  3848 ;; *************** function _eval_poly *****************
  3849 ;; Defined at:
  3850 ;;		line 4 in file "C:\Program Files\Microchip\xc8\v2.36\pic\sources\c90\common\evalpoly.c"
  3851 ;; Parameters:    Size  Location     Type
  3852 ;;  x               4    0[BANK1 ] PTR int 
  3853 ;;  d               1    4[BANK1 ] PTR const 
  3854 ;;		 -> log@coeff(36), 
  3855 ;;  n               2    5[BANK1 ] int 
  3856 ;; Auto vars:     Size  Location     Type
  3857 ;;  res             4   12[BANK1 ] int 
  3858 ;; Return value:  Size  Location     Type
  3859 ;;                  4    0[BANK1 ] int 
  3860 ;; Registers used:
  3861 ;;		wreg, fsr0l, fsr0h, status,2, status,0, btemp+1, pclath, cstack
  3862 ;; Tracked objects:
  3863 ;;		On entry : 0/0
  3864 ;;		On exit  : 0/0
  3865 ;;		Unchanged: 0/0
  3866 ;; Data sizes:     COMMON   BANK0   BANK1   BANK3   BANK2
  3867 ;;      Params:         0       0       7       0       0
  3868 ;;      Locals:         0       0       4       0       0
  3869 ;;      Temps:          0       0       5       0       0
  3870 ;;      Totals:         0       0      16       0       0
  3871 ;;Total ram usage:       16 bytes
  3872 ;; Hardware stack levels used: 1
  3873 ;; Hardware stack levels required when called: 2
  3874 ;; This function calls:
  3875 ;;		___fladd
  3876 ;;		___flmul
  3877 ;; This function is called by:
  3878 ;;		_log
  3879 ;; This function uses a non-reentrant model
  3880 ;;
  3881                           
  3882  0872                     _eval_poly:	
  3883                           ;psect for function _eval_poly
  3884                           
  3885  0872                     l2710:	
  3886                           ;incstack = 0
  3887                           ; Regs used in _eval_poly: [wreg-fsr0h+status,2+status,0+btemp+1+pclath+cstack]
  3888                           
  3889  0872  1683               	bsf	3,5	;RP0=1, select bank1
  3890  0873  1303               	bcf	3,6	;RP1=0, select bank1
  3891  0874  0825               	movf	eval_poly@n^(0+128),w
  3892  0875  00A7               	movwf	??_eval_poly^(0+128)
  3893  0876  3001               	movlw	1
  3894  0877                     u3655:
  3895  0877  1003               	clrc
  3896  0878  0DA7               	rlf	??_eval_poly^(0+128),f
  3897  0879  3EFF               	addlw	-1
  3898  087A  1D03               	skipz
  3899  087B  2877               	goto	u3655
  3900  087C  1003               	clrc
  3901  087D  0D27               	rlf	??_eval_poly^(0+128),w
  3902  087E  0724               	addwf	eval_poly@d^(0+128),w
  3903  087F  0084               	movwf	4
  3904  0880  120A  158A  200A  120A  158A  	fcall	stringdir
  3905  0885  00A8               	movwf	(??_eval_poly+1)^(0+128)
  3906  0886  120A  158A  200A  120A  158A  	fcall	stringdir
  3907  088B  00A9               	movwf	((??_eval_poly+1)^(0+128)+1)
  3908  088C  120A  158A  200A  120A  158A  	fcall	stringdir
  3909  0891  00AA               	movwf	((??_eval_poly+1)^(0+128)+2)
  3910  0892  120A  158A  200A  120A  158A  	fcall	stringdir
  3911  0897  00AB               	movwf	((??_eval_poly+1)^(0+128)+3)
  3912  0898  082B               	movf	(??_eval_poly+4)^(0+128),w
  3913  0899  00AF               	movwf	(eval_poly@res+3)^(0+128)
  3914  089A  082A               	movf	(??_eval_poly+3)^(0+128),w
  3915  089B  00AE               	movwf	(eval_poly@res+2)^(0+128)
  3916  089C  0829               	movf	(??_eval_poly+2)^(0+128),w
  3917  089D  00AD               	movwf	(eval_poly@res+1)^(0+128)
  3918  089E  0828               	movf	(??_eval_poly+1)^(0+128),w
  3919  089F  00AC               	movwf	eval_poly@res^(0+128)
  3920  08A0  293D               	goto	l2714
  3921  08A1                     l2712:
  3922  08A1  30FF               	movlw	255
  3923  08A2  07A5               	addwf	eval_poly@n^(0+128),f
  3924  08A3  1803               	skipnc
  3925  08A4  0AA6               	incf	(eval_poly@n+1)^(0+128),f
  3926  08A5  30FF               	movlw	255
  3927  08A6  07A6               	addwf	(eval_poly@n+1)^(0+128),f
  3928  08A7  0825               	movf	eval_poly@n^(0+128),w
  3929  08A8  00A7               	movwf	??_eval_poly^(0+128)
  3930  08A9  3001               	movlw	1
  3931  08AA                     u3665:
  3932  08AA  1003               	clrc
  3933  08AB  0DA7               	rlf	??_eval_poly^(0+128),f
  3934  08AC  3EFF               	addlw	-1
  3935  08AD  1D03               	skipz
  3936  08AE  28AA               	goto	u3665
  3937  08AF  1003               	clrc
  3938  08B0  0D27               	rlf	??_eval_poly^(0+128),w
  3939  08B1  0724               	addwf	eval_poly@d^(0+128),w
  3940  08B2  0084               	movwf	4
  3941  08B3  120A  158A  200A  120A  158A  	fcall	stringdir
  3942  08B8  00A8               	movwf	(??_eval_poly+1)^(0+128)
  3943  08B9  120A  158A  200A  120A  158A  	fcall	stringdir
  3944  08BE  00A9               	movwf	((??_eval_poly+1)^(0+128)+1)
  3945  08BF  120A  158A  200A  120A  158A  	fcall	stringdir
  3946  08C4  00AA               	movwf	((??_eval_poly+1)^(0+128)+2)
  3947  08C5  120A  158A  200A  120A  158A  	fcall	stringdir
  3948  08CA  00AB               	movwf	((??_eval_poly+1)^(0+128)+3)
  3949  08CB  082B               	movf	(??_eval_poly+4)^(0+128),w
  3950  08CC  1283               	bcf	3,5	;RP0=0, select bank0
  3951  08CD  1303               	bcf	3,6	;RP1=0, select bank0
  3952  08CE  00DC               	movwf	___fladd@b+3
  3953  08CF  1683               	bsf	3,5	;RP0=1, select bank1
  3954  08D0  1303               	bcf	3,6	;RP1=0, select bank1
  3955  08D1  082A               	movf	(??_eval_poly+3)^(0+128),w
  3956  08D2  1283               	bcf	3,5	;RP0=0, select bank0
  3957  08D3  1303               	bcf	3,6	;RP1=0, select bank0
  3958  08D4  00DB               	movwf	___fladd@b+2
  3959  08D5  1683               	bsf	3,5	;RP0=1, select bank1
  3960  08D6  1303               	bcf	3,6	;RP1=0, select bank1
  3961  08D7  0829               	movf	(??_eval_poly+2)^(0+128),w
  3962  08D8  1283               	bcf	3,5	;RP0=0, select bank0
  3963  08D9  1303               	bcf	3,6	;RP1=0, select bank0
  3964  08DA  00DA               	movwf	___fladd@b+1
  3965  08DB  1683               	bsf	3,5	;RP0=1, select bank1
  3966  08DC  1303               	bcf	3,6	;RP1=0, select bank1
  3967  08DD  0828               	movf	(??_eval_poly+1)^(0+128),w
  3968  08DE  1283               	bcf	3,5	;RP0=0, select bank0
  3969  08DF  1303               	bcf	3,6	;RP1=0, select bank0
  3970  08E0  00D9               	movwf	___fladd@b
  3971  08E1  1683               	bsf	3,5	;RP0=1, select bank1
  3972  08E2  1303               	bcf	3,6	;RP1=0, select bank1
  3973  08E3  082F               	movf	(eval_poly@res+3)^(0+128),w
  3974  08E4  1283               	bcf	3,5	;RP0=0, select bank0
  3975  08E5  1303               	bcf	3,6	;RP1=0, select bank0
  3976  08E6  00A8               	movwf	___flmul@b+3
  3977  08E7  1683               	bsf	3,5	;RP0=1, select bank1
  3978  08E8  1303               	bcf	3,6	;RP1=0, select bank1
  3979  08E9  082E               	movf	(eval_poly@res+2)^(0+128),w
  3980  08EA  1283               	bcf	3,5	;RP0=0, select bank0
  3981  08EB  1303               	bcf	3,6	;RP1=0, select bank0
  3982  08EC  00A7               	movwf	___flmul@b+2
  3983  08ED  1683               	bsf	3,5	;RP0=1, select bank1
  3984  08EE  1303               	bcf	3,6	;RP1=0, select bank1
  3985  08EF  082D               	movf	(eval_poly@res+1)^(0+128),w
  3986  08F0  1283               	bcf	3,5	;RP0=0, select bank0
  3987  08F1  1303               	bcf	3,6	;RP1=0, select bank0
  3988  08F2  00A6               	movwf	___flmul@b+1
  3989  08F3  1683               	bsf	3,5	;RP0=1, select bank1
  3990  08F4  1303               	bcf	3,6	;RP1=0, select bank1
  3991  08F5  082C               	movf	eval_poly@res^(0+128),w
  3992  08F6  1283               	bcf	3,5	;RP0=0, select bank0
  3993  08F7  1303               	bcf	3,6	;RP1=0, select bank0
  3994  08F8  00A5               	movwf	___flmul@b
  3995  08F9  1683               	bsf	3,5	;RP0=1, select bank1
  3996  08FA  1303               	bcf	3,6	;RP1=0, select bank1
  3997  08FB  0823               	movf	(eval_poly@x+3)^(0+128),w
  3998  08FC  1283               	bcf	3,5	;RP0=0, select bank0
  3999  08FD  1303               	bcf	3,6	;RP1=0, select bank0
  4000  08FE  00AC               	movwf	___flmul@a+3
  4001  08FF  1683               	bsf	3,5	;RP0=1, select bank1
  4002  0900  1303               	bcf	3,6	;RP1=0, select bank1
  4003  0901  0822               	movf	(eval_poly@x+2)^(0+128),w
  4004  0902  1283               	bcf	3,5	;RP0=0, select bank0
  4005  0903  1303               	bcf	3,6	;RP1=0, select bank0
  4006  0904  00AB               	movwf	___flmul@a+2
  4007  0905  1683               	bsf	3,5	;RP0=1, select bank1
  4008  0906  1303               	bcf	3,6	;RP1=0, select bank1
  4009  0907  0821               	movf	(eval_poly@x+1)^(0+128),w
  4010  0908  1283               	bcf	3,5	;RP0=0, select bank0
  4011  0909  1303               	bcf	3,6	;RP1=0, select bank0
  4012  090A  00AA               	movwf	___flmul@a+1
  4013  090B  1683               	bsf	3,5	;RP0=1, select bank1
  4014  090C  1303               	bcf	3,6	;RP1=0, select bank1
  4015  090D  0820               	movf	eval_poly@x^(0+128),w
  4016  090E  1283               	bcf	3,5	;RP0=0, select bank0
  4017  090F  1303               	bcf	3,6	;RP1=0, select bank0
  4018  0910  00A9               	movwf	___flmul@a
  4019  0911  120A  118A  20BA  120A  158A  	fcall	___flmul
  4020  0916  1283               	bcf	3,5	;RP0=0, select bank0
  4021  0917  1303               	bcf	3,6	;RP1=0, select bank0
  4022  0918  0828               	movf	?___flmul+3,w
  4023  0919  00E0               	movwf	___fladd@a+3
  4024  091A  0827               	movf	?___flmul+2,w
  4025  091B  00DF               	movwf	___fladd@a+2
  4026  091C  0826               	movf	?___flmul+1,w
  4027  091D  00DE               	movwf	___fladd@a+1
  4028  091E  0825               	movf	?___flmul,w
  4029  091F  00DD               	movwf	___fladd@a
  4030  0920  120A  158A  2578  120A  158A  	fcall	___fladd
  4031  0925  1283               	bcf	3,5	;RP0=0, select bank0
  4032  0926  1303               	bcf	3,6	;RP1=0, select bank0
  4033  0927  085C               	movf	?___fladd+3,w
  4034  0928  1683               	bsf	3,5	;RP0=1, select bank1
  4035  0929  1303               	bcf	3,6	;RP1=0, select bank1
  4036  092A  00AF               	movwf	(eval_poly@res+3)^(0+128)
  4037  092B  1283               	bcf	3,5	;RP0=0, select bank0
  4038  092C  1303               	bcf	3,6	;RP1=0, select bank0
  4039  092D  085B               	movf	?___fladd+2,w
  4040  092E  1683               	bsf	3,5	;RP0=1, select bank1
  4041  092F  1303               	bcf	3,6	;RP1=0, select bank1
  4042  0930  00AE               	movwf	(eval_poly@res+2)^(0+128)
  4043  0931  1283               	bcf	3,5	;RP0=0, select bank0
  4044  0932  1303               	bcf	3,6	;RP1=0, select bank0
  4045  0933  085A               	movf	?___fladd+1,w
  4046  0934  1683               	bsf	3,5	;RP0=1, select bank1
  4047  0935  1303               	bcf	3,6	;RP1=0, select bank1
  4048  0936  00AD               	movwf	(eval_poly@res+1)^(0+128)
  4049  0937  1283               	bcf	3,5	;RP0=0, select bank0
  4050  0938  1303               	bcf	3,6	;RP1=0, select bank0
  4051  0939  0859               	movf	?___fladd,w
  4052  093A  1683               	bsf	3,5	;RP0=1, select bank1
  4053  093B  1303               	bcf	3,6	;RP1=0, select bank1
  4054  093C  00AC               	movwf	eval_poly@res^(0+128)
  4055  093D                     l2714:
  4056  093D  0825               	movf	eval_poly@n^(0+128),w
  4057  093E  0426               	iorwf	(eval_poly@n+1)^(0+128),w
  4058  093F  1D03               	btfss	3,2
  4059  0940  2942               	goto	u3671
  4060  0941  2943               	goto	u3670
  4061  0942                     u3671:
  4062  0942  28A1               	goto	l2712
  4063  0943                     u3670:
  4064  0943                     l2716:
  4065  0943  082F               	movf	(eval_poly@res+3)^(0+128),w
  4066  0944  00A3               	movwf	(?_eval_poly+3)^(0+128)
  4067  0945  082E               	movf	(eval_poly@res+2)^(0+128),w
  4068  0946  00A2               	movwf	(?_eval_poly+2)^(0+128)
  4069  0947  082D               	movf	(eval_poly@res+1)^(0+128),w
  4070  0948  00A1               	movwf	(?_eval_poly+1)^(0+128)
  4071  0949  082C               	movf	eval_poly@res^(0+128),w
  4072  094A  00A0               	movwf	?_eval_poly^(0+128)
  4073  094B                     l835:
  4074  094B  0008               	return
  4075  094C                     __end_of_eval_poly:
  4076                           
  4077                           	psect	text10
  4078  00BA                     __ptext10:	
  4079 ;; *************** function ___flmul *****************
  4080 ;; Defined at:
  4081 ;;		line 8 in file "C:\Program Files\Microchip\xc8\v2.36\pic\sources\c90\common\sprcmul.c"
  4082 ;; Parameters:    Size  Location     Type
  4083 ;;  b               4    5[BANK0 ] int 
  4084 ;;  a               4    9[BANK0 ] int 
  4085 ;; Auto vars:     Size  Location     Type
  4086 ;;  prod            4   25[BANK0 ] struct .
  4087 ;;  grs             4   19[BANK0 ] unsigned long 
  4088 ;;  temp            2   29[BANK0 ] struct .
  4089 ;;  bexp            1   24[BANK0 ] unsigned char 
  4090 ;;  aexp            1   23[BANK0 ] unsigned char 
  4091 ;;  sign            1   18[BANK0 ] unsigned char 
  4092 ;; Return value:  Size  Location     Type
  4093 ;;                  4    5[BANK0 ] unsigned char 
  4094 ;; Registers used:
  4095 ;;		wreg, status,2, status,0, btemp+1, pclath, cstack
  4096 ;; Tracked objects:
  4097 ;;		On entry : 0/0
  4098 ;;		On exit  : 0/0
  4099 ;;		Unchanged: 0/0
  4100 ;; Data sizes:     COMMON   BANK0   BANK1   BANK3   BANK2
  4101 ;;      Params:         0       8       0       0       0
  4102 ;;      Locals:         0      13       0       0       0
  4103 ;;      Temps:          0       5       0       0       0
  4104 ;;      Totals:         0      26       0       0       0
  4105 ;;Total ram usage:       26 bytes
  4106 ;; Hardware stack levels used: 1
  4107 ;; Hardware stack levels required when called: 1
  4108 ;; This function calls:
  4109 ;;		__Umul8_16
  4110 ;; This function is called by:
  4111 ;;		_main
  4112 ;;		_log
  4113 ;;		_eval_poly
  4114 ;; This function uses a non-reentrant model
  4115 ;;
  4116                           
  4117  00BA                     ___flmul:	
  4118                           ;psect for function ___flmul
  4119                           
  4120  00BA                     l2366:	
  4121                           ;incstack = 0
  4122                           ; Regs used in ___flmul: [wreg+status,2+status,0+btemp+1+pclath+cstack]
  4123                           
  4124  00BA  1283               	bcf	3,5	;RP0=0, select bank0
  4125  00BB  1303               	bcf	3,6	;RP1=0, select bank0
  4126  00BC  0828               	movf	___flmul@b+3,w
  4127  00BD  3980               	andlw	128
  4128  00BE  00AD               	movwf	??___flmul
  4129  00BF  082D               	movf	??___flmul,w
  4130  00C0  00B2               	movwf	___flmul@sign
  4131  00C1                     l2368:
  4132  00C1  0828               	movf	___flmul@b+3,w
  4133  00C2  00AD               	movwf	??___flmul
  4134  00C3  072D               	addwf	??___flmul,w
  4135  00C4  00AE               	movwf	??___flmul+1
  4136  00C5  082E               	movf	??___flmul+1,w
  4137  00C6  00B8               	movwf	___flmul@bexp
  4138  00C7                     l2370:
  4139  00C7  1FA7               	btfss	___flmul@b+2,7
  4140  00C8  28CA               	goto	u2801
  4141  00C9  28CB               	goto	u2800
  4142  00CA                     u2801:
  4143  00CA  28CC               	goto	l2374
  4144  00CB                     u2800:
  4145  00CB                     l2372:
  4146  00CB  1438               	bsf	___flmul@bexp,0
  4147  00CC                     l2374:
  4148  00CC  0838               	movf	___flmul@bexp,w
  4149  00CD  1903               	btfsc	3,2
  4150  00CE  28D0               	goto	u2811
  4151  00CF  28D1               	goto	u2810
  4152  00D0                     u2811:
  4153  00D0  28E0               	goto	l2382
  4154  00D1                     u2810:
  4155  00D1                     l2376:
  4156  00D1  0A38               	incf	___flmul@bexp,w
  4157  00D2  1D03               	btfss	3,2
  4158  00D3  28D5               	goto	u2821
  4159  00D4  28D6               	goto	u2820
  4160  00D5                     u2821:
  4161  00D5  28DE               	goto	l2380
  4162  00D6                     u2820:
  4163  00D6                     l2378:
  4164  00D6  3000               	movlw	0
  4165  00D7  00A8               	movwf	___flmul@b+3
  4166  00D8  3000               	movlw	0
  4167  00D9  00A7               	movwf	___flmul@b+2
  4168  00DA  3000               	movlw	0
  4169  00DB  00A6               	movwf	___flmul@b+1
  4170  00DC  3000               	movlw	0
  4171  00DD  00A5               	movwf	___flmul@b
  4172  00DE                     l2380:
  4173  00DE  17A7               	bsf	___flmul@b+2,7
  4174  00DF  28E8               	goto	l2384
  4175  00E0                     l2382:
  4176  00E0  3000               	movlw	0
  4177  00E1  00A8               	movwf	___flmul@b+3
  4178  00E2  3000               	movlw	0
  4179  00E3  00A7               	movwf	___flmul@b+2
  4180  00E4  3000               	movlw	0
  4181  00E5  00A6               	movwf	___flmul@b+1
  4182  00E6  3000               	movlw	0
  4183  00E7  00A5               	movwf	___flmul@b
  4184  00E8                     l2384:
  4185  00E8  082C               	movf	___flmul@a+3,w
  4186  00E9  3980               	andlw	128
  4187  00EA  00AD               	movwf	??___flmul
  4188  00EB  082D               	movf	??___flmul,w
  4189  00EC  06B2               	xorwf	___flmul@sign,f
  4190  00ED                     l2386:
  4191  00ED  082C               	movf	___flmul@a+3,w
  4192  00EE  00AD               	movwf	??___flmul
  4193  00EF  072D               	addwf	??___flmul,w
  4194  00F0  00AE               	movwf	??___flmul+1
  4195  00F1  082E               	movf	??___flmul+1,w
  4196  00F2  00B7               	movwf	___flmul@aexp
  4197  00F3                     l2388:
  4198  00F3  1FAB               	btfss	___flmul@a+2,7
  4199  00F4  28F6               	goto	u2831
  4200  00F5  28F7               	goto	u2830
  4201  00F6                     u2831:
  4202  00F6  28F8               	goto	l2392
  4203  00F7                     u2830:
  4204  00F7                     l2390:
  4205  00F7  1437               	bsf	___flmul@aexp,0
  4206  00F8                     l2392:
  4207  00F8  0837               	movf	___flmul@aexp,w
  4208  00F9  1903               	btfsc	3,2
  4209  00FA  28FC               	goto	u2841
  4210  00FB  28FD               	goto	u2840
  4211  00FC                     u2841:
  4212  00FC  290C               	goto	l2400
  4213  00FD                     u2840:
  4214  00FD                     l2394:
  4215  00FD  0A37               	incf	___flmul@aexp,w
  4216  00FE  1D03               	btfss	3,2
  4217  00FF  2901               	goto	u2851
  4218  0100  2902               	goto	u2850
  4219  0101                     u2851:
  4220  0101  290A               	goto	l2398
  4221  0102                     u2850:
  4222  0102                     l2396:
  4223  0102  3000               	movlw	0
  4224  0103  00AC               	movwf	___flmul@a+3
  4225  0104  3000               	movlw	0
  4226  0105  00AB               	movwf	___flmul@a+2
  4227  0106  3000               	movlw	0
  4228  0107  00AA               	movwf	___flmul@a+1
  4229  0108  3000               	movlw	0
  4230  0109  00A9               	movwf	___flmul@a
  4231  010A                     l2398:
  4232  010A  17AB               	bsf	___flmul@a+2,7
  4233  010B  2914               	goto	l2402
  4234  010C                     l2400:
  4235  010C  3000               	movlw	0
  4236  010D  00AC               	movwf	___flmul@a+3
  4237  010E  3000               	movlw	0
  4238  010F  00AB               	movwf	___flmul@a+2
  4239  0110  3000               	movlw	0
  4240  0111  00AA               	movwf	___flmul@a+1
  4241  0112  3000               	movlw	0
  4242  0113  00A9               	movwf	___flmul@a
  4243  0114                     l2402:
  4244  0114  0837               	movf	___flmul@aexp,w
  4245  0115  1903               	btfsc	3,2
  4246  0116  2918               	goto	u2861
  4247  0117  2919               	goto	u2860
  4248  0118                     u2861:
  4249  0118  291E               	goto	l2406
  4250  0119                     u2860:
  4251  0119                     l2404:
  4252  0119  0838               	movf	___flmul@bexp,w
  4253  011A  1D03               	btfss	3,2
  4254  011B  291D               	goto	u2871
  4255  011C  291E               	goto	u2870
  4256  011D                     u2871:
  4257  011D  2927               	goto	l2410
  4258  011E                     u2870:
  4259  011E                     l2406:
  4260  011E  3000               	movlw	0
  4261  011F  00A8               	movwf	?___flmul+3
  4262  0120  3000               	movlw	0
  4263  0121  00A7               	movwf	?___flmul+2
  4264  0122  3000               	movlw	0
  4265  0123  00A6               	movwf	?___flmul+1
  4266  0124  3000               	movlw	0
  4267  0125  00A5               	movwf	?___flmul
  4268  0126  2C1A               	goto	l752
  4269  0127                     l2410:
  4270  0127  0825               	movf	___flmul@b,w
  4271  0128  00AD               	movwf	??___flmul
  4272  0129  082D               	movf	??___flmul,w
  4273  012A  00F0               	movwf	__Umul8_16@multiplicand
  4274  012B  082B               	movf	___flmul@a+2,w
  4275  012C  160A  118A  2395  120A  118A  	fcall	__Umul8_16
  4276  0131  0871               	movf	?__Umul8_16+1,w
  4277  0132  1283               	bcf	3,5	;RP0=0, select bank0
  4278  0133  1303               	bcf	3,6	;RP1=0, select bank0
  4279  0134  00BE               	movwf	___flmul@temp+1
  4280  0135  0870               	movf	?__Umul8_16,w
  4281  0136  00BD               	movwf	___flmul@temp
  4282  0137                     l2412:
  4283  0137  083D               	movf	___flmul@temp,w
  4284  0138  00AD               	movwf	??___flmul
  4285  0139  01AE               	clrf	??___flmul+1
  4286  013A  01AF               	clrf	??___flmul+2
  4287  013B  01B0               	clrf	??___flmul+3
  4288  013C  0830               	movf	??___flmul+3,w
  4289  013D  00B6               	movwf	___flmul@grs+3
  4290  013E  082F               	movf	??___flmul+2,w
  4291  013F  00B5               	movwf	___flmul@grs+2
  4292  0140  082E               	movf	??___flmul+1,w
  4293  0141  00B4               	movwf	___flmul@grs+1
  4294  0142  082D               	movf	??___flmul,w
  4295  0143  00B3               	movwf	___flmul@grs
  4296  0144                     l2414:
  4297  0144  083E               	movf	___flmul@temp+1,w
  4298  0145  00AD               	movwf	??___flmul
  4299  0146  01AE               	clrf	??___flmul+1
  4300  0147  01AF               	clrf	??___flmul+2
  4301  0148  01B0               	clrf	??___flmul+3
  4302  0149  0830               	movf	??___flmul+3,w
  4303  014A  00BC               	movwf	___flmul@prod+3
  4304  014B  082F               	movf	??___flmul+2,w
  4305  014C  00BB               	movwf	___flmul@prod+2
  4306  014D  082E               	movf	??___flmul+1,w
  4307  014E  00BA               	movwf	___flmul@prod+1
  4308  014F  082D               	movf	??___flmul,w
  4309  0150  00B9               	movwf	___flmul@prod
  4310  0151  0826               	movf	___flmul@b+1,w
  4311  0152  00AD               	movwf	??___flmul
  4312  0153  082D               	movf	??___flmul,w
  4313  0154  00F0               	movwf	__Umul8_16@multiplicand
  4314  0155  082A               	movf	___flmul@a+1,w
  4315  0156  160A  118A  2395  120A  118A  	fcall	__Umul8_16
  4316  015B  0871               	movf	?__Umul8_16+1,w
  4317  015C  1283               	bcf	3,5	;RP0=0, select bank0
  4318  015D  1303               	bcf	3,6	;RP1=0, select bank0
  4319  015E  00BE               	movwf	___flmul@temp+1
  4320  015F  0870               	movf	?__Umul8_16,w
  4321  0160  00BD               	movwf	___flmul@temp
  4322  0161                     l2416:
  4323  0161  083D               	movf	___flmul@temp,w
  4324  0162  00AD               	movwf	??___flmul
  4325  0163  01AE               	clrf	??___flmul+1
  4326  0164  01AF               	clrf	??___flmul+2
  4327  0165  01B0               	clrf	??___flmul+3
  4328  0166  082D               	movf	??___flmul,w
  4329  0167  07B3               	addwf	___flmul@grs,f
  4330  0168  082E               	movf	??___flmul+1,w
  4331  0169  1103               	clrz
  4332  016A  1803               	skipnc
  4333  016B  3E01               	addlw	1
  4334  016C  1903               	skipnz
  4335  016D  296F               	goto	u2881
  4336  016E  07B4               	addwf	___flmul@grs+1,f
  4337  016F                     u2881:
  4338  016F  082F               	movf	??___flmul+2,w
  4339  0170  1103               	clrz
  4340  0171  1803               	skipnc
  4341  0172  3E01               	addlw	1
  4342  0173  1903               	skipnz
  4343  0174  2976               	goto	u2882
  4344  0175  07B5               	addwf	___flmul@grs+2,f
  4345  0176                     u2882:
  4346  0176  0830               	movf	??___flmul+3,w
  4347  0177  1103               	clrz
  4348  0178  1803               	skipnc
  4349  0179  3E01               	addlw	1
  4350  017A  1903               	skipnz
  4351  017B  297D               	goto	u2883
  4352  017C  07B6               	addwf	___flmul@grs+3,f
  4353  017D                     u2883:
  4354  017D                     l2418:
  4355  017D  083E               	movf	___flmul@temp+1,w
  4356  017E  00AD               	movwf	??___flmul
  4357  017F  01AE               	clrf	??___flmul+1
  4358  0180  01AF               	clrf	??___flmul+2
  4359  0181  01B0               	clrf	??___flmul+3
  4360  0182  082D               	movf	??___flmul,w
  4361  0183  07B9               	addwf	___flmul@prod,f
  4362  0184  082E               	movf	??___flmul+1,w
  4363  0185  1103               	clrz
  4364  0186  1803               	skipnc
  4365  0187  3E01               	addlw	1
  4366  0188  1903               	skipnz
  4367  0189  298B               	goto	u2891
  4368  018A  07BA               	addwf	___flmul@prod+1,f
  4369  018B                     u2891:
  4370  018B  082F               	movf	??___flmul+2,w
  4371  018C  1103               	clrz
  4372  018D  1803               	skipnc
  4373  018E  3E01               	addlw	1
  4374  018F  1903               	skipnz
  4375  0190  2992               	goto	u2892
  4376  0191  07BB               	addwf	___flmul@prod+2,f
  4377  0192                     u2892:
  4378  0192  0830               	movf	??___flmul+3,w
  4379  0193  1103               	clrz
  4380  0194  1803               	skipnc
  4381  0195  3E01               	addlw	1
  4382  0196  1903               	skipnz
  4383  0197  2999               	goto	u2893
  4384  0198  07BC               	addwf	___flmul@prod+3,f
  4385  0199                     u2893:
  4386  0199  0827               	movf	___flmul@b+2,w
  4387  019A  00AD               	movwf	??___flmul
  4388  019B  082D               	movf	??___flmul,w
  4389  019C  00F0               	movwf	__Umul8_16@multiplicand
  4390  019D  0829               	movf	___flmul@a,w
  4391  019E  160A  118A  2395  120A  118A  	fcall	__Umul8_16
  4392  01A3  0871               	movf	?__Umul8_16+1,w
  4393  01A4  1283               	bcf	3,5	;RP0=0, select bank0
  4394  01A5  1303               	bcf	3,6	;RP1=0, select bank0
  4395  01A6  00BE               	movwf	___flmul@temp+1
  4396  01A7  0870               	movf	?__Umul8_16,w
  4397  01A8  00BD               	movwf	___flmul@temp
  4398  01A9                     l2420:
  4399  01A9  083D               	movf	___flmul@temp,w
  4400  01AA  00AD               	movwf	??___flmul
  4401  01AB  01AE               	clrf	??___flmul+1
  4402  01AC  01AF               	clrf	??___flmul+2
  4403  01AD  01B0               	clrf	??___flmul+3
  4404  01AE  082D               	movf	??___flmul,w
  4405  01AF  07B3               	addwf	___flmul@grs,f
  4406  01B0  082E               	movf	??___flmul+1,w
  4407  01B1  1103               	clrz
  4408  01B2  1803               	skipnc
  4409  01B3  3E01               	addlw	1
  4410  01B4  1903               	skipnz
  4411  01B5  29B7               	goto	u2901
  4412  01B6  07B4               	addwf	___flmul@grs+1,f
  4413  01B7                     u2901:
  4414  01B7  082F               	movf	??___flmul+2,w
  4415  01B8  1103               	clrz
  4416  01B9  1803               	skipnc
  4417  01BA  3E01               	addlw	1
  4418  01BB  1903               	skipnz
  4419  01BC  29BE               	goto	u2902
  4420  01BD  07B5               	addwf	___flmul@grs+2,f
  4421  01BE                     u2902:
  4422  01BE  0830               	movf	??___flmul+3,w
  4423  01BF  1103               	clrz
  4424  01C0  1803               	skipnc
  4425  01C1  3E01               	addlw	1
  4426  01C2  1903               	skipnz
  4427  01C3  29C5               	goto	u2903
  4428  01C4  07B6               	addwf	___flmul@grs+3,f
  4429  01C5                     u2903:
  4430  01C5                     l2422:
  4431  01C5  083E               	movf	___flmul@temp+1,w
  4432  01C6  00AD               	movwf	??___flmul
  4433  01C7  01AE               	clrf	??___flmul+1
  4434  01C8  01AF               	clrf	??___flmul+2
  4435  01C9  01B0               	clrf	??___flmul+3
  4436  01CA  082D               	movf	??___flmul,w
  4437  01CB  07B9               	addwf	___flmul@prod,f
  4438  01CC  082E               	movf	??___flmul+1,w
  4439  01CD  1103               	clrz
  4440  01CE  1803               	skipnc
  4441  01CF  3E01               	addlw	1
  4442  01D0  1903               	skipnz
  4443  01D1  29D3               	goto	u2911
  4444  01D2  07BA               	addwf	___flmul@prod+1,f
  4445  01D3                     u2911:
  4446  01D3  082F               	movf	??___flmul+2,w
  4447  01D4  1103               	clrz
  4448  01D5  1803               	skipnc
  4449  01D6  3E01               	addlw	1
  4450  01D7  1903               	skipnz
  4451  01D8  29DA               	goto	u2912
  4452  01D9  07BB               	addwf	___flmul@prod+2,f
  4453  01DA                     u2912:
  4454  01DA  0830               	movf	??___flmul+3,w
  4455  01DB  1103               	clrz
  4456  01DC  1803               	skipnc
  4457  01DD  3E01               	addlw	1
  4458  01DE  1903               	skipnz
  4459  01DF  29E1               	goto	u2913
  4460  01E0  07BC               	addwf	___flmul@prod+3,f
  4461  01E1                     u2913:
  4462  01E1                     l2424:
  4463  01E1  3008               	movlw	8
  4464  01E2  00AD               	movwf	??___flmul
  4465  01E3                     u2925:
  4466  01E3  1003               	clrc
  4467  01E4  0DB3               	rlf	___flmul@grs,f
  4468  01E5  0DB4               	rlf	___flmul@grs+1,f
  4469  01E6  0DB5               	rlf	___flmul@grs+2,f
  4470  01E7  0DB6               	rlf	___flmul@grs+3,f
  4471  01E8  0BAD               	decfsz	??___flmul,f
  4472  01E9  29E3               	goto	u2925
  4473  01EA                     l2426:
  4474  01EA  0826               	movf	___flmul@b+1,w
  4475  01EB  00AD               	movwf	??___flmul
  4476  01EC  082D               	movf	??___flmul,w
  4477  01ED  00F0               	movwf	__Umul8_16@multiplicand
  4478  01EE  0829               	movf	___flmul@a,w
  4479  01EF  160A  118A  2395  120A  118A  	fcall	__Umul8_16
  4480  01F4  0871               	movf	?__Umul8_16+1,w
  4481  01F5  1283               	bcf	3,5	;RP0=0, select bank0
  4482  01F6  1303               	bcf	3,6	;RP1=0, select bank0
  4483  01F7  00BE               	movwf	___flmul@temp+1
  4484  01F8  0870               	movf	?__Umul8_16,w
  4485  01F9  00BD               	movwf	___flmul@temp
  4486  01FA                     l2428:
  4487  01FA  083D               	movf	___flmul@temp,w
  4488  01FB  00AD               	movwf	??___flmul
  4489  01FC  083E               	movf	___flmul@temp+1,w
  4490  01FD  00AE               	movwf	??___flmul+1
  4491  01FE  01AF               	clrf	??___flmul+2
  4492  01FF  01B0               	clrf	??___flmul+3
  4493  0200  082D               	movf	??___flmul,w
  4494  0201  07B3               	addwf	___flmul@grs,f
  4495  0202  082E               	movf	??___flmul+1,w
  4496  0203  1103               	clrz
  4497  0204  1803               	skipnc
  4498  0205  3E01               	addlw	1
  4499  0206  1903               	skipnz
  4500  0207  2A09               	goto	u2931
  4501  0208  07B4               	addwf	___flmul@grs+1,f
  4502  0209                     u2931:
  4503  0209  082F               	movf	??___flmul+2,w
  4504  020A  1103               	clrz
  4505  020B  1803               	skipnc
  4506  020C  3E01               	addlw	1
  4507  020D  1903               	skipnz
  4508  020E  2A10               	goto	u2932
  4509  020F  07B5               	addwf	___flmul@grs+2,f
  4510  0210                     u2932:
  4511  0210  0830               	movf	??___flmul+3,w
  4512  0211  1103               	clrz
  4513  0212  1803               	skipnc
  4514  0213  3E01               	addlw	1
  4515  0214  1903               	skipnz
  4516  0215  2A17               	goto	u2933
  4517  0216  07B6               	addwf	___flmul@grs+3,f
  4518  0217                     u2933:
  4519  0217                     l2430:
  4520  0217  0825               	movf	___flmul@b,w
  4521  0218  00AD               	movwf	??___flmul
  4522  0219  082D               	movf	??___flmul,w
  4523  021A  00F0               	movwf	__Umul8_16@multiplicand
  4524  021B  082A               	movf	___flmul@a+1,w
  4525  021C  160A  118A  2395  120A  118A  	fcall	__Umul8_16
  4526  0221  0871               	movf	?__Umul8_16+1,w
  4527  0222  1283               	bcf	3,5	;RP0=0, select bank0
  4528  0223  1303               	bcf	3,6	;RP1=0, select bank0
  4529  0224  00BE               	movwf	___flmul@temp+1
  4530  0225  0870               	movf	?__Umul8_16,w
  4531  0226  00BD               	movwf	___flmul@temp
  4532  0227                     l2432:
  4533  0227  083D               	movf	___flmul@temp,w
  4534  0228  00AD               	movwf	??___flmul
  4535  0229  083E               	movf	___flmul@temp+1,w
  4536  022A  00AE               	movwf	??___flmul+1
  4537  022B  01AF               	clrf	??___flmul+2
  4538  022C  01B0               	clrf	??___flmul+3
  4539  022D  082D               	movf	??___flmul,w
  4540  022E  07B3               	addwf	___flmul@grs,f
  4541  022F  082E               	movf	??___flmul+1,w
  4542  0230  1103               	clrz
  4543  0231  1803               	skipnc
  4544  0232  3E01               	addlw	1
  4545  0233  1903               	skipnz
  4546  0234  2A36               	goto	u2941
  4547  0235  07B4               	addwf	___flmul@grs+1,f
  4548  0236                     u2941:
  4549  0236  082F               	movf	??___flmul+2,w
  4550  0237  1103               	clrz
  4551  0238  1803               	skipnc
  4552  0239  3E01               	addlw	1
  4553  023A  1903               	skipnz
  4554  023B  2A3D               	goto	u2942
  4555  023C  07B5               	addwf	___flmul@grs+2,f
  4556  023D                     u2942:
  4557  023D  0830               	movf	??___flmul+3,w
  4558  023E  1103               	clrz
  4559  023F  1803               	skipnc
  4560  0240  3E01               	addlw	1
  4561  0241  1903               	skipnz
  4562  0242  2A44               	goto	u2943
  4563  0243  07B6               	addwf	___flmul@grs+3,f
  4564  0244                     u2943:
  4565  0244                     l2434:
  4566  0244  3008               	movlw	8
  4567  0245  00AD               	movwf	??___flmul
  4568  0246                     u2955:
  4569  0246  1003               	clrc
  4570  0247  0DB3               	rlf	___flmul@grs,f
  4571  0248  0DB4               	rlf	___flmul@grs+1,f
  4572  0249  0DB5               	rlf	___flmul@grs+2,f
  4573  024A  0DB6               	rlf	___flmul@grs+3,f
  4574  024B  0BAD               	decfsz	??___flmul,f
  4575  024C  2A46               	goto	u2955
  4576  024D  0825               	movf	___flmul@b,w
  4577  024E  00AD               	movwf	??___flmul
  4578  024F  082D               	movf	??___flmul,w
  4579  0250  00F0               	movwf	__Umul8_16@multiplicand
  4580  0251  0829               	movf	___flmul@a,w
  4581  0252  160A  118A  2395  120A  118A  	fcall	__Umul8_16
  4582  0257  0871               	movf	?__Umul8_16+1,w
  4583  0258  1283               	bcf	3,5	;RP0=0, select bank0
  4584  0259  1303               	bcf	3,6	;RP1=0, select bank0
  4585  025A  00BE               	movwf	___flmul@temp+1
  4586  025B  0870               	movf	?__Umul8_16,w
  4587  025C  00BD               	movwf	___flmul@temp
  4588  025D                     l2436:
  4589  025D  083D               	movf	___flmul@temp,w
  4590  025E  00AD               	movwf	??___flmul
  4591  025F  083E               	movf	___flmul@temp+1,w
  4592  0260  00AE               	movwf	??___flmul+1
  4593  0261  01AF               	clrf	??___flmul+2
  4594  0262  01B0               	clrf	??___flmul+3
  4595  0263  082D               	movf	??___flmul,w
  4596  0264  07B3               	addwf	___flmul@grs,f
  4597  0265  082E               	movf	??___flmul+1,w
  4598  0266  1103               	clrz
  4599  0267  1803               	skipnc
  4600  0268  3E01               	addlw	1
  4601  0269  1903               	skipnz
  4602  026A  2A6C               	goto	u2961
  4603  026B  07B4               	addwf	___flmul@grs+1,f
  4604  026C                     u2961:
  4605  026C  082F               	movf	??___flmul+2,w
  4606  026D  1103               	clrz
  4607  026E  1803               	skipnc
  4608  026F  3E01               	addlw	1
  4609  0270  1903               	skipnz
  4610  0271  2A73               	goto	u2962
  4611  0272  07B5               	addwf	___flmul@grs+2,f
  4612  0273                     u2962:
  4613  0273  0830               	movf	??___flmul+3,w
  4614  0274  1103               	clrz
  4615  0275  1803               	skipnc
  4616  0276  3E01               	addlw	1
  4617  0277  1903               	skipnz
  4618  0278  2A7A               	goto	u2963
  4619  0279  07B6               	addwf	___flmul@grs+3,f
  4620  027A                     u2963:
  4621  027A                     l2438:
  4622  027A  0826               	movf	___flmul@b+1,w
  4623  027B  00AD               	movwf	??___flmul
  4624  027C  082D               	movf	??___flmul,w
  4625  027D  00F0               	movwf	__Umul8_16@multiplicand
  4626  027E  082B               	movf	___flmul@a+2,w
  4627  027F  160A  118A  2395  120A  118A  	fcall	__Umul8_16
  4628  0284  0871               	movf	?__Umul8_16+1,w
  4629  0285  1283               	bcf	3,5	;RP0=0, select bank0
  4630  0286  1303               	bcf	3,6	;RP1=0, select bank0
  4631  0287  00BE               	movwf	___flmul@temp+1
  4632  0288  0870               	movf	?__Umul8_16,w
  4633  0289  00BD               	movwf	___flmul@temp
  4634  028A  083D               	movf	___flmul@temp,w
  4635  028B  00AD               	movwf	??___flmul
  4636  028C  083E               	movf	___flmul@temp+1,w
  4637  028D  00AE               	movwf	??___flmul+1
  4638  028E  01AF               	clrf	??___flmul+2
  4639  028F  01B0               	clrf	??___flmul+3
  4640  0290  082D               	movf	??___flmul,w
  4641  0291  07B9               	addwf	___flmul@prod,f
  4642  0292  082E               	movf	??___flmul+1,w
  4643  0293  1103               	clrz
  4644  0294  1803               	skipnc
  4645  0295  3E01               	addlw	1
  4646  0296  1903               	skipnz
  4647  0297  2A99               	goto	u2971
  4648  0298  07BA               	addwf	___flmul@prod+1,f
  4649  0299                     u2971:
  4650  0299  082F               	movf	??___flmul+2,w
  4651  029A  1103               	clrz
  4652  029B  1803               	skipnc
  4653  029C  3E01               	addlw	1
  4654  029D  1903               	skipnz
  4655  029E  2AA0               	goto	u2972
  4656  029F  07BB               	addwf	___flmul@prod+2,f
  4657  02A0                     u2972:
  4658  02A0  0830               	movf	??___flmul+3,w
  4659  02A1  1103               	clrz
  4660  02A2  1803               	skipnc
  4661  02A3  3E01               	addlw	1
  4662  02A4  1903               	skipnz
  4663  02A5  2AA7               	goto	u2973
  4664  02A6  07BC               	addwf	___flmul@prod+3,f
  4665  02A7                     u2973:
  4666  02A7                     l2440:
  4667  02A7  0827               	movf	___flmul@b+2,w
  4668  02A8  00AD               	movwf	??___flmul
  4669  02A9  082D               	movf	??___flmul,w
  4670  02AA  00F0               	movwf	__Umul8_16@multiplicand
  4671  02AB  082A               	movf	___flmul@a+1,w
  4672  02AC  160A  118A  2395  120A  118A  	fcall	__Umul8_16
  4673  02B1  0871               	movf	?__Umul8_16+1,w
  4674  02B2  1283               	bcf	3,5	;RP0=0, select bank0
  4675  02B3  1303               	bcf	3,6	;RP1=0, select bank0
  4676  02B4  00BE               	movwf	___flmul@temp+1
  4677  02B5  0870               	movf	?__Umul8_16,w
  4678  02B6  00BD               	movwf	___flmul@temp
  4679  02B7                     l2442:
  4680  02B7  083D               	movf	___flmul@temp,w
  4681  02B8  00AD               	movwf	??___flmul
  4682  02B9  083E               	movf	___flmul@temp+1,w
  4683  02BA  00AE               	movwf	??___flmul+1
  4684  02BB  01AF               	clrf	??___flmul+2
  4685  02BC  01B0               	clrf	??___flmul+3
  4686  02BD  082D               	movf	??___flmul,w
  4687  02BE  07B9               	addwf	___flmul@prod,f
  4688  02BF  082E               	movf	??___flmul+1,w
  4689  02C0  1103               	clrz
  4690  02C1  1803               	skipnc
  4691  02C2  3E01               	addlw	1
  4692  02C3  1903               	skipnz
  4693  02C4  2AC6               	goto	u2981
  4694  02C5  07BA               	addwf	___flmul@prod+1,f
  4695  02C6                     u2981:
  4696  02C6  082F               	movf	??___flmul+2,w
  4697  02C7  1103               	clrz
  4698  02C8  1803               	skipnc
  4699  02C9  3E01               	addlw	1
  4700  02CA  1903               	skipnz
  4701  02CB  2ACD               	goto	u2982
  4702  02CC  07BB               	addwf	___flmul@prod+2,f
  4703  02CD                     u2982:
  4704  02CD  0830               	movf	??___flmul+3,w
  4705  02CE  1103               	clrz
  4706  02CF  1803               	skipnc
  4707  02D0  3E01               	addlw	1
  4708  02D1  1903               	skipnz
  4709  02D2  2AD4               	goto	u2983
  4710  02D3  07BC               	addwf	___flmul@prod+3,f
  4711  02D4                     u2983:
  4712  02D4  0827               	movf	___flmul@b+2,w
  4713  02D5  00AD               	movwf	??___flmul
  4714  02D6  082D               	movf	??___flmul,w
  4715  02D7  00F0               	movwf	__Umul8_16@multiplicand
  4716  02D8  082B               	movf	___flmul@a+2,w
  4717  02D9  160A  118A  2395  120A  118A  	fcall	__Umul8_16
  4718  02DE  0871               	movf	?__Umul8_16+1,w
  4719  02DF  1283               	bcf	3,5	;RP0=0, select bank0
  4720  02E0  1303               	bcf	3,6	;RP1=0, select bank0
  4721  02E1  00BE               	movwf	___flmul@temp+1
  4722  02E2  0870               	movf	?__Umul8_16,w
  4723  02E3  00BD               	movwf	___flmul@temp
  4724  02E4                     l2444:
  4725  02E4  083D               	movf	___flmul@temp,w
  4726  02E5  00AD               	movwf	??___flmul
  4727  02E6  083E               	movf	___flmul@temp+1,w
  4728  02E7  00AE               	movwf	??___flmul+1
  4729  02E8  01AF               	clrf	??___flmul+2
  4730  02E9  01B0               	clrf	??___flmul+3
  4731  02EA  3008               	movlw	8
  4732  02EB                     u2995:
  4733  02EB  1003               	clrc
  4734  02EC  0DAD               	rlf	??___flmul,f
  4735  02ED  0DAE               	rlf	??___flmul+1,f
  4736  02EE  0DAF               	rlf	??___flmul+2,f
  4737  02EF  0DB0               	rlf	??___flmul+3,f
  4738  02F0                     u2990:
  4739  02F0  3EFF               	addlw	-1
  4740  02F1  1D03               	skipz
  4741  02F2  2AEB               	goto	u2995
  4742  02F3  082D               	movf	??___flmul,w
  4743  02F4  07B9               	addwf	___flmul@prod,f
  4744  02F5  082E               	movf	??___flmul+1,w
  4745  02F6  1103               	clrz
  4746  02F7  1803               	skipnc
  4747  02F8  3E01               	addlw	1
  4748  02F9  1903               	skipnz
  4749  02FA  2AFC               	goto	u3001
  4750  02FB  07BA               	addwf	___flmul@prod+1,f
  4751  02FC                     u3001:
  4752  02FC  082F               	movf	??___flmul+2,w
  4753  02FD  1103               	clrz
  4754  02FE  1803               	skipnc
  4755  02FF  3E01               	addlw	1
  4756  0300  1903               	skipnz
  4757  0301  2B03               	goto	u3002
  4758  0302  07BB               	addwf	___flmul@prod+2,f
  4759  0303                     u3002:
  4760  0303  0830               	movf	??___flmul+3,w
  4761  0304  1103               	clrz
  4762  0305  1803               	skipnc
  4763  0306  3E01               	addlw	1
  4764  0307  1903               	skipnz
  4765  0308  2B0A               	goto	u3003
  4766  0309  07BC               	addwf	___flmul@prod+3,f
  4767  030A                     u3003:
  4768  030A                     l2446:
  4769  030A  0833               	movf	___flmul@grs,w
  4770  030B  00AD               	movwf	??___flmul
  4771  030C  0834               	movf	___flmul@grs+1,w
  4772  030D  00AE               	movwf	??___flmul+1
  4773  030E  0835               	movf	___flmul@grs+2,w
  4774  030F  00AF               	movwf	??___flmul+2
  4775  0310  0836               	movf	___flmul@grs+3,w
  4776  0311  00B0               	movwf	??___flmul+3
  4777  0312  3018               	movlw	24
  4778  0313                     u3015:
  4779  0313  1003               	clrc
  4780  0314  0CB0               	rrf	??___flmul+3,f
  4781  0315  0CAF               	rrf	??___flmul+2,f
  4782  0316  0CAE               	rrf	??___flmul+1,f
  4783  0317  0CAD               	rrf	??___flmul,f
  4784  0318                     u3010:
  4785  0318  3EFF               	addlw	-1
  4786  0319  1D03               	skipz
  4787  031A  2B13               	goto	u3015
  4788  031B  082D               	movf	??___flmul,w
  4789  031C  07B9               	addwf	___flmul@prod,f
  4790  031D  082E               	movf	??___flmul+1,w
  4791  031E  1103               	clrz
  4792  031F  1803               	skipnc
  4793  0320  3E01               	addlw	1
  4794  0321  1903               	skipnz
  4795  0322  2B24               	goto	u3021
  4796  0323  07BA               	addwf	___flmul@prod+1,f
  4797  0324                     u3021:
  4798  0324  082F               	movf	??___flmul+2,w
  4799  0325  1103               	clrz
  4800  0326  1803               	skipnc
  4801  0327  3E01               	addlw	1
  4802  0328  1903               	skipnz
  4803  0329  2B2B               	goto	u3022
  4804  032A  07BB               	addwf	___flmul@prod+2,f
  4805  032B                     u3022:
  4806  032B  0830               	movf	??___flmul+3,w
  4807  032C  1103               	clrz
  4808  032D  1803               	skipnc
  4809  032E  3E01               	addlw	1
  4810  032F  1903               	skipnz
  4811  0330  2B32               	goto	u3023
  4812  0331  07BC               	addwf	___flmul@prod+3,f
  4813  0332                     u3023:
  4814  0332                     l2448:
  4815  0332  3008               	movlw	8
  4816  0333  00AD               	movwf	??___flmul
  4817  0334                     u3035:
  4818  0334  1003               	clrc
  4819  0335  0DB3               	rlf	___flmul@grs,f
  4820  0336  0DB4               	rlf	___flmul@grs+1,f
  4821  0337  0DB5               	rlf	___flmul@grs+2,f
  4822  0338  0DB6               	rlf	___flmul@grs+3,f
  4823  0339  0BAD               	decfsz	??___flmul,f
  4824  033A  2B34               	goto	u3035
  4825  033B                     l2450:
  4826  033B  0838               	movf	___flmul@bexp,w
  4827  033C  0737               	addwf	___flmul@aexp,w
  4828  033D  00AD               	movwf	??___flmul
  4829  033E  01AE               	clrf	??___flmul+1
  4830  033F  0DAE               	rlf	??___flmul+1,f
  4831  0340  082D               	movf	??___flmul,w
  4832  0341  3E82               	addlw	130
  4833  0342  00BD               	movwf	___flmul@temp
  4834  0343  082E               	movf	??___flmul+1,w
  4835  0344  1803               	skipnc
  4836  0345  3E01               	addlw	1
  4837  0346  3EFF               	addlw	255
  4838  0347  00BE               	movwf	___flmul@temp+1
  4839  0348  2B66               	goto	l2462
  4840  0349                     l2452:
  4841  0349  3001               	movlw	1
  4842  034A  00AD               	movwf	??___flmul
  4843  034B                     u3045:
  4844  034B  1003               	clrc
  4845  034C  0DB9               	rlf	___flmul@prod,f
  4846  034D  0DBA               	rlf	___flmul@prod+1,f
  4847  034E  0DBB               	rlf	___flmul@prod+2,f
  4848  034F  0DBC               	rlf	___flmul@prod+3,f
  4849  0350  0BAD               	decfsz	??___flmul,f
  4850  0351  2B4B               	goto	u3045
  4851  0352                     l2454:
  4852  0352  1FB6               	btfss	___flmul@grs+3,7
  4853  0353  2B55               	goto	u3051
  4854  0354  2B56               	goto	u3050
  4855  0355                     u3051:
  4856  0355  2B57               	goto	l2458
  4857  0356                     u3050:
  4858  0356                     l2456:
  4859  0356  1439               	bsf	___flmul@prod,0
  4860  0357                     l2458:
  4861  0357  3001               	movlw	1
  4862  0358  00AD               	movwf	??___flmul
  4863  0359                     u3065:
  4864  0359  1003               	clrc
  4865  035A  0DB3               	rlf	___flmul@grs,f
  4866  035B  0DB4               	rlf	___flmul@grs+1,f
  4867  035C  0DB5               	rlf	___flmul@grs+2,f
  4868  035D  0DB6               	rlf	___flmul@grs+3,f
  4869  035E  0BAD               	decfsz	??___flmul,f
  4870  035F  2B59               	goto	u3065
  4871  0360                     l2460:
  4872  0360  30FF               	movlw	255
  4873  0361  07BD               	addwf	___flmul@temp,f
  4874  0362  1803               	skipnc
  4875  0363  0ABE               	incf	___flmul@temp+1,f
  4876  0364  30FF               	movlw	255
  4877  0365  07BE               	addwf	___flmul@temp+1,f
  4878  0366                     l2462:
  4879  0366  1FBB               	btfss	___flmul@prod+2,7
  4880  0367  2B69               	goto	u3071
  4881  0368  2B6A               	goto	u3070
  4882  0369                     u3071:
  4883  0369  2B49               	goto	l2452
  4884  036A                     u3070:
  4885  036A                     l2464:
  4886  036A  01B7               	clrf	___flmul@aexp
  4887  036B                     l2466:
  4888  036B  1FB6               	btfss	___flmul@grs+3,7
  4889  036C  2B6E               	goto	u3081
  4890  036D  2B6F               	goto	u3080
  4891  036E                     u3081:
  4892  036E  2B8B               	goto	l2474
  4893  036F                     u3080:
  4894  036F                     l2468:
  4895  036F  30FF               	movlw	255
  4896  0370  0533               	andwf	___flmul@grs,w
  4897  0371  00AD               	movwf	??___flmul
  4898  0372  30FF               	movlw	255
  4899  0373  0534               	andwf	___flmul@grs+1,w
  4900  0374  00AE               	movwf	??___flmul+1
  4901  0375  30FF               	movlw	255
  4902  0376  0535               	andwf	___flmul@grs+2,w
  4903  0377  00AF               	movwf	??___flmul+2
  4904  0378  307F               	movlw	127
  4905  0379  0536               	andwf	___flmul@grs+3,w
  4906  037A  00B0               	movwf	??___flmul+3
  4907  037B  0830               	movf	??___flmul+3,w
  4908  037C  042F               	iorwf	??___flmul+2,w
  4909  037D  042E               	iorwf	??___flmul+1,w
  4910  037E  042D               	iorwf	??___flmul,w
  4911  037F  1903               	skipnz
  4912  0380  2B82               	goto	u3091
  4913  0381  2B83               	goto	u3090
  4914  0382                     u3091:
  4915  0382  2B86               	goto	l758
  4916  0383                     u3090:
  4917  0383                     l2470:
  4918  0383  01B7               	clrf	___flmul@aexp
  4919  0384  0AB7               	incf	___flmul@aexp,f
  4920  0385  2B8B               	goto	l2474
  4921  0386                     l758:
  4922  0386  1C39               	btfss	___flmul@prod,0
  4923  0387  2B89               	goto	u3101
  4924  0388  2B8A               	goto	u3100
  4925  0389                     u3101:
  4926  0389  2B8B               	goto	l2474
  4927  038A                     u3100:
  4928  038A  2B83               	goto	l2470
  4929  038B                     l2474:
  4930  038B  0837               	movf	___flmul@aexp,w
  4931  038C  1903               	btfsc	3,2
  4932  038D  2B8F               	goto	u3111
  4933  038E  2B90               	goto	u3110
  4934  038F                     u3111:
  4935  038F  2BC1               	goto	l2484
  4936  0390                     u3110:
  4937  0390                     l2476:
  4938  0390  3001               	movlw	1
  4939  0391  07B9               	addwf	___flmul@prod,f
  4940  0392  3000               	movlw	0
  4941  0393  1803               	skipnc
  4942  0394  3001               	movlw	1
  4943  0395  07BA               	addwf	___flmul@prod+1,f
  4944  0396  3000               	movlw	0
  4945  0397  1803               	skipnc
  4946  0398  3001               	movlw	1
  4947  0399  07BB               	addwf	___flmul@prod+2,f
  4948  039A  3000               	movlw	0
  4949  039B  1803               	skipnc
  4950  039C  3001               	movlw	1
  4951  039D  07BC               	addwf	___flmul@prod+3,f
  4952  039E                     l2478:
  4953  039E  1C3C               	btfss	___flmul@prod+3,0
  4954  039F  2BA1               	goto	u3121
  4955  03A0  2BA2               	goto	u3120
  4956  03A1                     u3121:
  4957  03A1  2BC1               	goto	l2484
  4958  03A2                     u3120:
  4959  03A2                     l2480:
  4960  03A2  0839               	movf	___flmul@prod,w
  4961  03A3  00AD               	movwf	??___flmul
  4962  03A4  083A               	movf	___flmul@prod+1,w
  4963  03A5  00AE               	movwf	??___flmul+1
  4964  03A6  083B               	movf	___flmul@prod+2,w
  4965  03A7  00AF               	movwf	??___flmul+2
  4966  03A8  083C               	movf	___flmul@prod+3,w
  4967  03A9  00B0               	movwf	??___flmul+3
  4968  03AA  3001               	movlw	1
  4969  03AB  00B1               	movwf	??___flmul+4
  4970  03AC                     u3135:
  4971  03AC  0D30               	rlf	??___flmul+3,w
  4972  03AD  0CB0               	rrf	??___flmul+3,f
  4973  03AE  0CAF               	rrf	??___flmul+2,f
  4974  03AF  0CAE               	rrf	??___flmul+1,f
  4975  03B0  0CAD               	rrf	??___flmul,f
  4976  03B1                     u3130:
  4977  03B1  0BB1               	decfsz	??___flmul+4,f
  4978  03B2  2BAC               	goto	u3135
  4979  03B3  0830               	movf	??___flmul+3,w
  4980  03B4  00BC               	movwf	___flmul@prod+3
  4981  03B5  082F               	movf	??___flmul+2,w
  4982  03B6  00BB               	movwf	___flmul@prod+2
  4983  03B7  082E               	movf	??___flmul+1,w
  4984  03B8  00BA               	movwf	___flmul@prod+1
  4985  03B9  082D               	movf	??___flmul,w
  4986  03BA  00B9               	movwf	___flmul@prod
  4987  03BB                     l2482:
  4988  03BB  3001               	movlw	1
  4989  03BC  07BD               	addwf	___flmul@temp,f
  4990  03BD  1803               	skipnc
  4991  03BE  0ABE               	incf	___flmul@temp+1,f
  4992  03BF  3000               	movlw	0
  4993  03C0  07BE               	addwf	___flmul@temp+1,f
  4994  03C1                     l2484:
  4995  03C1  083E               	movf	___flmul@temp+1,w
  4996  03C2  3A80               	xorlw	128
  4997  03C3  00FF               	movwf	btemp+1
  4998  03C4  3080               	movlw	128
  4999  03C5  027F               	subwf	btemp+1,w
  5000  03C6  1D03               	skipz
  5001  03C7  2BCA               	goto	u3145
  5002  03C8  30FF               	movlw	255
  5003  03C9  023D               	subwf	___flmul@temp,w
  5004  03CA                     u3145:
  5005  03CA  1C03               	skipc
  5006  03CB  2BCD               	goto	u3141
  5007  03CC  2BCE               	goto	u3140
  5008  03CD                     u3141:
  5009  03CD  2BD9               	goto	l2488
  5010  03CE                     u3140:
  5011  03CE                     l2486:
  5012  03CE  307F               	movlw	127
  5013  03CF  1283               	bcf	3,5	;RP0=0, select bank0
  5014  03D0  1303               	bcf	3,6	;RP1=0, select bank0
  5015  03D1  00BC               	movwf	___flmul@prod+3
  5016  03D2  3080               	movlw	128
  5017  03D3  00BB               	movwf	___flmul@prod+2
  5018  03D4  3000               	movlw	0
  5019  03D5  00BA               	movwf	___flmul@prod+1
  5020  03D6  3000               	movlw	0
  5021  03D7  00B9               	movwf	___flmul@prod
  5022  03D8  2C0E               	goto	l764
  5023  03D9                     l2488:
  5024  03D9  1283               	bcf	3,5	;RP0=0, select bank0
  5025  03DA  1303               	bcf	3,6	;RP1=0, select bank0
  5026  03DB  083E               	movf	___flmul@temp+1,w
  5027  03DC  3A80               	xorlw	128
  5028  03DD  00FF               	movwf	btemp+1
  5029  03DE  3080               	movlw	128
  5030  03DF  027F               	subwf	btemp+1,w
  5031  03E0  1D03               	skipz
  5032  03E1  2BE4               	goto	u3155
  5033  03E2  3001               	movlw	1
  5034  03E3  023D               	subwf	___flmul@temp,w
  5035  03E4                     u3155:
  5036  03E4  1803               	skipnc
  5037  03E5  2BE7               	goto	u3151
  5038  03E6  2BE8               	goto	u3150
  5039  03E7                     u3151:
  5040  03E7  2BF4               	goto	l2494
  5041  03E8                     u3150:
  5042  03E8                     l2490:
  5043  03E8  3000               	movlw	0
  5044  03E9  1283               	bcf	3,5	;RP0=0, select bank0
  5045  03EA  1303               	bcf	3,6	;RP1=0, select bank0
  5046  03EB  00BC               	movwf	___flmul@prod+3
  5047  03EC  3000               	movlw	0
  5048  03ED  00BB               	movwf	___flmul@prod+2
  5049  03EE  3000               	movlw	0
  5050  03EF  00BA               	movwf	___flmul@prod+1
  5051  03F0  3000               	movlw	0
  5052  03F1  00B9               	movwf	___flmul@prod
  5053  03F2                     l2492:
  5054  03F2  01B2               	clrf	___flmul@sign
  5055  03F3  2C0E               	goto	l764
  5056  03F4                     l2494:
  5057  03F4  1283               	bcf	3,5	;RP0=0, select bank0
  5058  03F5  1303               	bcf	3,6	;RP1=0, select bank0
  5059  03F6  083D               	movf	___flmul@temp,w
  5060  03F7  00AD               	movwf	??___flmul
  5061  03F8  082D               	movf	??___flmul,w
  5062  03F9  00B8               	movwf	___flmul@bexp
  5063  03FA  30FF               	movlw	255
  5064  03FB  05B9               	andwf	___flmul@prod,f
  5065  03FC  30FF               	movlw	255
  5066  03FD  05BA               	andwf	___flmul@prod+1,f
  5067  03FE  307F               	movlw	127
  5068  03FF  05BB               	andwf	___flmul@prod+2,f
  5069  0400  3000               	movlw	0
  5070  0401  05BC               	andwf	___flmul@prod+3,f
  5071  0402                     l2496:
  5072  0402  1C38               	btfss	___flmul@bexp,0
  5073  0403  2C05               	goto	u3161
  5074  0404  2C06               	goto	u3160
  5075  0405                     u3161:
  5076  0405  2C07               	goto	l2500
  5077  0406                     u3160:
  5078  0406                     l2498:
  5079  0406  17BB               	bsf	___flmul@prod+2,7
  5080  0407                     l2500:
  5081  0407  0838               	movf	___flmul@bexp,w
  5082  0408  00AD               	movwf	??___flmul
  5083  0409  1003               	clrc
  5084  040A  0C2D               	rrf	??___flmul,w
  5085  040B  00AE               	movwf	??___flmul+1
  5086  040C  082E               	movf	??___flmul+1,w
  5087  040D  00BC               	movwf	___flmul@prod+3
  5088  040E                     l764:
  5089  040E  0832               	movf	___flmul@sign,w
  5090  040F  00AD               	movwf	??___flmul
  5091  0410  082D               	movf	??___flmul,w
  5092  0411  04BC               	iorwf	___flmul@prod+3,f
  5093  0412                     l2502:
  5094  0412  083C               	movf	___flmul@prod+3,w
  5095  0413  00A8               	movwf	?___flmul+3
  5096  0414  083B               	movf	___flmul@prod+2,w
  5097  0415  00A7               	movwf	?___flmul+2
  5098  0416  083A               	movf	___flmul@prod+1,w
  5099  0417  00A6               	movwf	?___flmul+1
  5100  0418  0839               	movf	___flmul@prod,w
  5101  0419  00A5               	movwf	?___flmul
  5102  041A                     l752:
  5103  041A  0008               	return
  5104  041B                     __end_of___flmul:
  5105                           
  5106                           	psect	text11
  5107  1395                     __ptext11:	
  5108 ;; *************** function __Umul8_16 *****************
  5109 ;; Defined at:
  5110 ;;		line 4 in file "C:\Program Files\Microchip\xc8\v2.36\pic\sources\c90\common\Umul8_16.c"
  5111 ;; Parameters:    Size  Location     Type
  5112 ;;  multiplier      1    wreg     unsigned char 
  5113 ;;  multiplicand    1    0[COMMON] unsigned char 
  5114 ;; Auto vars:     Size  Location     Type
  5115 ;;  multiplier      1    8[COMMON] unsigned char 
  5116 ;;  word_mpld       2    6[COMMON] unsigned int 
  5117 ;;  product         2    4[COMMON] unsigned int 
  5118 ;; Return value:  Size  Location     Type
  5119 ;;                  2    0[COMMON] unsigned int 
  5120 ;; Registers used:
  5121 ;;		wreg, status,2, status,0
  5122 ;; Tracked objects:
  5123 ;;		On entry : 0/0
  5124 ;;		On exit  : 0/0
  5125 ;;		Unchanged: 0/0
  5126 ;; Data sizes:     COMMON   BANK0   BANK1   BANK3   BANK2
  5127 ;;      Params:         2       0       0       0       0
  5128 ;;      Locals:         5       0       0       0       0
  5129 ;;      Temps:          2       0       0       0       0
  5130 ;;      Totals:         9       0       0       0       0
  5131 ;;Total ram usage:        9 bytes
  5132 ;; Hardware stack levels used: 1
  5133 ;; This function calls:
  5134 ;;		Nothing
  5135 ;; This function is called by:
  5136 ;;		___flmul
  5137 ;; This function uses a non-reentrant model
  5138 ;;
  5139                           
  5140  1395                     __Umul8_16:	
  5141                           ;psect for function __Umul8_16
  5142                           
  5143                           
  5144                           ;incstack = 0
  5145                           ; Regs used in __Umul8_16: [wreg+status,2+status,0]
  5146                           ;__Umul8_16@multiplier stored from wreg
  5147  1395  00F8               	movwf	__Umul8_16@multiplier
  5148  1396                     l2126:
  5149  1396  01F4               	clrf	__Umul8_16@product
  5150  1397  01F5               	clrf	__Umul8_16@product+1
  5151  1398                     l2128:
  5152  1398  0870               	movf	__Umul8_16@multiplicand,w
  5153  1399  00F2               	movwf	??__Umul8_16
  5154  139A  01F3               	clrf	??__Umul8_16+1
  5155  139B  0872               	movf	??__Umul8_16,w
  5156  139C  00F6               	movwf	__Umul8_16@word_mpld
  5157  139D  0873               	movf	??__Umul8_16+1,w
  5158  139E  00F7               	movwf	__Umul8_16@word_mpld+1
  5159  139F                     l2130:
  5160  139F  1C78               	btfss	__Umul8_16@multiplier,0
  5161  13A0  2BA2               	goto	u2271
  5162  13A1  2BA3               	goto	u2270
  5163  13A2                     u2271:
  5164  13A2  2BA9               	goto	l771
  5165  13A3                     u2270:
  5166  13A3                     l2132:
  5167  13A3  0876               	movf	__Umul8_16@word_mpld,w
  5168  13A4  07F4               	addwf	__Umul8_16@product,f
  5169  13A5  1803               	skipnc
  5170  13A6  0AF5               	incf	__Umul8_16@product+1,f
  5171  13A7  0877               	movf	__Umul8_16@word_mpld+1,w
  5172  13A8  07F5               	addwf	__Umul8_16@product+1,f
  5173  13A9                     l771:
  5174  13A9  3001               	movlw	1
  5175  13AA                     u2285:
  5176  13AA  1003               	clrc
  5177  13AB  0DF6               	rlf	__Umul8_16@word_mpld,f
  5178  13AC  0DF7               	rlf	__Umul8_16@word_mpld+1,f
  5179  13AD  3EFF               	addlw	-1
  5180  13AE  1D03               	skipz
  5181  13AF  2BAA               	goto	u2285
  5182  13B0  1003               	clrc
  5183  13B1  0CF8               	rrf	__Umul8_16@multiplier,f
  5184  13B2                     l2134:
  5185  13B2  0878               	movf	__Umul8_16@multiplier,w
  5186  13B3  1D03               	btfss	3,2
  5187  13B4  2BB6               	goto	u2291
  5188  13B5  2BB7               	goto	u2290
  5189  13B6                     u2291:
  5190  13B6  2B9F               	goto	l2130
  5191  13B7                     u2290:
  5192  13B7                     l2136:
  5193  13B7  0875               	movf	__Umul8_16@product+1,w
  5194  13B8  00F1               	movwf	?__Umul8_16+1
  5195  13B9  0874               	movf	__Umul8_16@product,w
  5196  13BA  00F0               	movwf	?__Umul8_16
  5197  13BB                     l773:
  5198  13BB  0008               	return
  5199  13BC                     __end_of__Umul8_16:
  5200                           
  5201                           	psect	text12
  5202  0D78                     __ptext12:	
  5203 ;; *************** function ___fladd *****************
  5204 ;; Defined at:
  5205 ;;		line 10 in file "C:\Program Files\Microchip\xc8\v2.36\pic\sources\c90\common\sprcadd.c"
  5206 ;; Parameters:    Size  Location     Type
  5207 ;;  b               4   57[BANK0 ] unsigned int 
  5208 ;;  a               4   61[BANK0 ] unsigned int 
  5209 ;; Auto vars:     Size  Location     Type
  5210 ;;  grs             1   76[BANK0 ] unsigned char 
  5211 ;;  bexp            1   75[BANK0 ] unsigned char 
  5212 ;;  aexp            1   74[BANK0 ] unsigned char 
  5213 ;;  signs           1   73[BANK0 ] unsigned char 
  5214 ;; Return value:  Size  Location     Type
  5215 ;;                  4   57[BANK0 ] unsigned char 
  5216 ;; Registers used:
  5217 ;;		wreg, status,2, status,0, btemp+1
  5218 ;; Tracked objects:
  5219 ;;		On entry : 0/0
  5220 ;;		On exit  : 0/0
  5221 ;;		Unchanged: 0/0
  5222 ;; Data sizes:     COMMON   BANK0   BANK1   BANK3   BANK2
  5223 ;;      Params:         0       8       0       0       0
  5224 ;;      Locals:         0       4       0       0       0
  5225 ;;      Temps:          0       8       0       0       0
  5226 ;;      Totals:         0      20       0       0       0
  5227 ;;Total ram usage:       20 bytes
  5228 ;; Hardware stack levels used: 1
  5229 ;; This function calls:
  5230 ;;		Nothing
  5231 ;; This function is called by:
  5232 ;;		_main
  5233 ;;		_log
  5234 ;;		_eval_poly
  5235 ;; This function uses a non-reentrant model
  5236 ;;
  5237                           
  5238  0D78                     ___fladd:	
  5239                           ;psect for function ___fladd
  5240                           
  5241  0D78                     l2172:	
  5242                           ;incstack = 0
  5243                           ; Regs used in ___fladd: [wreg+status,2+status,0+btemp+1]
  5244                           
  5245  0D78  1283               	bcf	3,5	;RP0=0, select bank0
  5246  0D79  1303               	bcf	3,6	;RP1=0, select bank0
  5247  0D7A  085C               	movf	___fladd@b+3,w
  5248  0D7B  3980               	andlw	128
  5249  0D7C  00E1               	movwf	??___fladd
  5250  0D7D  0861               	movf	??___fladd,w
  5251  0D7E  00E9               	movwf	___fladd@signs
  5252  0D7F                     l2174:
  5253  0D7F  085C               	movf	___fladd@b+3,w
  5254  0D80  00E1               	movwf	??___fladd
  5255  0D81  0761               	addwf	??___fladd,w
  5256  0D82  00E2               	movwf	??___fladd+1
  5257  0D83  0862               	movf	??___fladd+1,w
  5258  0D84  00EB               	movwf	___fladd@bexp
  5259  0D85                     l2176:
  5260  0D85  1FDB               	btfss	___fladd@b+2,7
  5261  0D86  2D88               	goto	u2341
  5262  0D87  2D89               	goto	u2340
  5263  0D88                     u2341:
  5264  0D88  2D8A               	goto	l2180
  5265  0D89                     u2340:
  5266  0D89                     l2178:
  5267  0D89  146B               	bsf	___fladd@bexp,0
  5268  0D8A                     l2180:
  5269  0D8A  086B               	movf	___fladd@bexp,w
  5270  0D8B  1903               	btfsc	3,2
  5271  0D8C  2D8E               	goto	u2351
  5272  0D8D  2D8F               	goto	u2350
  5273  0D8E                     u2351:
  5274  0D8E  2D9F               	goto	l2190
  5275  0D8F                     u2350:
  5276  0D8F                     l2182:
  5277  0D8F  0A6B               	incf	___fladd@bexp,w
  5278  0D90  1D03               	btfss	3,2
  5279  0D91  2D93               	goto	u2361
  5280  0D92  2D94               	goto	u2360
  5281  0D93                     u2361:
  5282  0D93  2D9C               	goto	l2186
  5283  0D94                     u2360:
  5284  0D94                     l2184:
  5285  0D94  3000               	movlw	0
  5286  0D95  00DC               	movwf	___fladd@b+3
  5287  0D96  3000               	movlw	0
  5288  0D97  00DB               	movwf	___fladd@b+2
  5289  0D98  3000               	movlw	0
  5290  0D99  00DA               	movwf	___fladd@b+1
  5291  0D9A  3000               	movlw	0
  5292  0D9B  00D9               	movwf	___fladd@b
  5293  0D9C                     l2186:
  5294  0D9C  17DB               	bsf	___fladd@b+2,7
  5295  0D9D                     l2188:
  5296  0D9D  01DC               	clrf	___fladd@b+3
  5297  0D9E  2DA7               	goto	l2192
  5298  0D9F                     l2190:
  5299  0D9F  3000               	movlw	0
  5300  0DA0  00DC               	movwf	___fladd@b+3
  5301  0DA1  3000               	movlw	0
  5302  0DA2  00DB               	movwf	___fladd@b+2
  5303  0DA3  3000               	movlw	0
  5304  0DA4  00DA               	movwf	___fladd@b+1
  5305  0DA5  3000               	movlw	0
  5306  0DA6  00D9               	movwf	___fladd@b
  5307  0DA7                     l2192:
  5308  0DA7  0860               	movf	___fladd@a+3,w
  5309  0DA8  3980               	andlw	128
  5310  0DA9  00E1               	movwf	??___fladd
  5311  0DAA  0861               	movf	??___fladd,w
  5312  0DAB  00EA               	movwf	___fladd@aexp
  5313  0DAC                     l2194:
  5314  0DAC  086A               	movf	___fladd@aexp,w
  5315  0DAD  0669               	xorwf	___fladd@signs,w
  5316  0DAE  1903               	skipnz
  5317  0DAF  2DB1               	goto	u2371
  5318  0DB0  2DB2               	goto	u2370
  5319  0DB1                     u2371:
  5320  0DB1  2DB3               	goto	l2198
  5321  0DB2                     u2370:
  5322  0DB2                     l2196:
  5323  0DB2  1769               	bsf	___fladd@signs,6
  5324  0DB3                     l2198:
  5325  0DB3  0860               	movf	___fladd@a+3,w
  5326  0DB4  00E1               	movwf	??___fladd
  5327  0DB5  0761               	addwf	??___fladd,w
  5328  0DB6  00E2               	movwf	??___fladd+1
  5329  0DB7  0862               	movf	??___fladd+1,w
  5330  0DB8  00EA               	movwf	___fladd@aexp
  5331  0DB9                     l2200:
  5332  0DB9  1FDF               	btfss	___fladd@a+2,7
  5333  0DBA  2DBC               	goto	u2381
  5334  0DBB  2DBD               	goto	u2380
  5335  0DBC                     u2381:
  5336  0DBC  2DBE               	goto	l2204
  5337  0DBD                     u2380:
  5338  0DBD                     l2202:
  5339  0DBD  146A               	bsf	___fladd@aexp,0
  5340  0DBE                     l2204:
  5341  0DBE  086A               	movf	___fladd@aexp,w
  5342  0DBF  1903               	btfsc	3,2
  5343  0DC0  2DC2               	goto	u2391
  5344  0DC1  2DC3               	goto	u2390
  5345  0DC2                     u2391:
  5346  0DC2  2DD3               	goto	l2214
  5347  0DC3                     u2390:
  5348  0DC3                     l2206:
  5349  0DC3  0A6A               	incf	___fladd@aexp,w
  5350  0DC4  1D03               	btfss	3,2
  5351  0DC5  2DC7               	goto	u2401
  5352  0DC6  2DC8               	goto	u2400
  5353  0DC7                     u2401:
  5354  0DC7  2DD0               	goto	l2210
  5355  0DC8                     u2400:
  5356  0DC8                     l2208:
  5357  0DC8  3000               	movlw	0
  5358  0DC9  00E0               	movwf	___fladd@a+3
  5359  0DCA  3000               	movlw	0
  5360  0DCB  00DF               	movwf	___fladd@a+2
  5361  0DCC  3000               	movlw	0
  5362  0DCD  00DE               	movwf	___fladd@a+1
  5363  0DCE  3000               	movlw	0
  5364  0DCF  00DD               	movwf	___fladd@a
  5365  0DD0                     l2210:
  5366  0DD0  17DF               	bsf	___fladd@a+2,7
  5367  0DD1                     l2212:
  5368  0DD1  01E0               	clrf	___fladd@a+3
  5369  0DD2  2DDB               	goto	l656
  5370  0DD3                     l2214:
  5371  0DD3  3000               	movlw	0
  5372  0DD4  00E0               	movwf	___fladd@a+3
  5373  0DD5  3000               	movlw	0
  5374  0DD6  00DF               	movwf	___fladd@a+2
  5375  0DD7  3000               	movlw	0
  5376  0DD8  00DE               	movwf	___fladd@a+1
  5377  0DD9  3000               	movlw	0
  5378  0DDA  00DD               	movwf	___fladd@a
  5379  0DDB                     l656:
  5380  0DDB  086B               	movf	___fladd@bexp,w
  5381  0DDC  026A               	subwf	___fladd@aexp,w
  5382  0DDD  1803               	skipnc
  5383  0DDE  2DE0               	goto	u2411
  5384  0DDF  2DE1               	goto	u2410
  5385  0DE0                     u2411:
  5386  0DE0  2E25               	goto	l2250
  5387  0DE1                     u2410:
  5388  0DE1                     l2216:
  5389  0DE1  1F69               	btfss	___fladd@signs,6
  5390  0DE2  2DE4               	goto	u2421
  5391  0DE3  2DE5               	goto	u2420
  5392  0DE4                     u2421:
  5393  0DE4  2DE9               	goto	l2220
  5394  0DE5                     u2420:
  5395  0DE5                     l2218:
  5396  0DE5  3080               	movlw	128
  5397  0DE6  00E1               	movwf	??___fladd
  5398  0DE7  0861               	movf	??___fladd,w
  5399  0DE8  06E9               	xorwf	___fladd@signs,f
  5400  0DE9                     l2220:
  5401  0DE9  086B               	movf	___fladd@bexp,w
  5402  0DEA  00E1               	movwf	??___fladd
  5403  0DEB  0861               	movf	??___fladd,w
  5404  0DEC  00EC               	movwf	___fladd@grs
  5405  0DED                     l2222:
  5406  0DED  086A               	movf	___fladd@aexp,w
  5407  0DEE  00E1               	movwf	??___fladd
  5408  0DEF  0861               	movf	??___fladd,w
  5409  0DF0  00EB               	movwf	___fladd@bexp
  5410  0DF1                     l2224:
  5411  0DF1  086C               	movf	___fladd@grs,w
  5412  0DF2  00E1               	movwf	??___fladd
  5413  0DF3  0861               	movf	??___fladd,w
  5414  0DF4  00EA               	movwf	___fladd@aexp
  5415  0DF5                     l2226:
  5416  0DF5  0859               	movf	___fladd@b,w
  5417  0DF6  00E1               	movwf	??___fladd
  5418  0DF7  0861               	movf	??___fladd,w
  5419  0DF8  00EC               	movwf	___fladd@grs
  5420  0DF9                     l2228:
  5421  0DF9  085D               	movf	___fladd@a,w
  5422  0DFA  00E1               	movwf	??___fladd
  5423  0DFB  0861               	movf	??___fladd,w
  5424  0DFC  00D9               	movwf	___fladd@b
  5425  0DFD                     l2230:
  5426  0DFD  086C               	movf	___fladd@grs,w
  5427  0DFE  00E1               	movwf	??___fladd
  5428  0DFF  0861               	movf	??___fladd,w
  5429  0E00  00DD               	movwf	___fladd@a
  5430  0E01                     l2232:
  5431  0E01  085A               	movf	___fladd@b+1,w
  5432  0E02  00E1               	movwf	??___fladd
  5433  0E03  0861               	movf	??___fladd,w
  5434  0E04  00EC               	movwf	___fladd@grs
  5435  0E05                     l2234:
  5436  0E05  085E               	movf	___fladd@a+1,w
  5437  0E06  00E1               	movwf	??___fladd
  5438  0E07  0861               	movf	??___fladd,w
  5439  0E08  00DA               	movwf	___fladd@b+1
  5440  0E09                     l2236:
  5441  0E09  086C               	movf	___fladd@grs,w
  5442  0E0A  00E1               	movwf	??___fladd
  5443  0E0B  0861               	movf	??___fladd,w
  5444  0E0C  00DE               	movwf	___fladd@a+1
  5445  0E0D                     l2238:
  5446  0E0D  085B               	movf	___fladd@b+2,w
  5447  0E0E  00E1               	movwf	??___fladd
  5448  0E0F  0861               	movf	??___fladd,w
  5449  0E10  00EC               	movwf	___fladd@grs
  5450  0E11                     l2240:
  5451  0E11  085F               	movf	___fladd@a+2,w
  5452  0E12  00E1               	movwf	??___fladd
  5453  0E13  0861               	movf	??___fladd,w
  5454  0E14  00DB               	movwf	___fladd@b+2
  5455  0E15                     l2242:
  5456  0E15  086C               	movf	___fladd@grs,w
  5457  0E16  00E1               	movwf	??___fladd
  5458  0E17  0861               	movf	??___fladd,w
  5459  0E18  00DF               	movwf	___fladd@a+2
  5460  0E19                     l2244:
  5461  0E19  085C               	movf	___fladd@b+3,w
  5462  0E1A  00E1               	movwf	??___fladd
  5463  0E1B  0861               	movf	??___fladd,w
  5464  0E1C  00EC               	movwf	___fladd@grs
  5465  0E1D                     l2246:
  5466  0E1D  0860               	movf	___fladd@a+3,w
  5467  0E1E  00E1               	movwf	??___fladd
  5468  0E1F  0861               	movf	??___fladd,w
  5469  0E20  00DC               	movwf	___fladd@b+3
  5470  0E21                     l2248:
  5471  0E21  086C               	movf	___fladd@grs,w
  5472  0E22  00E1               	movwf	??___fladd
  5473  0E23  0861               	movf	??___fladd,w
  5474  0E24  00E0               	movwf	___fladd@a+3
  5475  0E25                     l2250:
  5476  0E25  01EC               	clrf	___fladd@grs
  5477  0E26                     l2252:
  5478  0E26  086A               	movf	___fladd@aexp,w
  5479  0E27  00E1               	movwf	??___fladd
  5480  0E28  01E2               	clrf	??___fladd+1
  5481  0E29  0862               	movf	??___fladd+1,w
  5482  0E2A  00E4               	movwf	??___fladd+3
  5483  0E2B  086B               	movf	___fladd@bexp,w
  5484  0E2C  0261               	subwf	??___fladd,w
  5485  0E2D  00E3               	movwf	??___fladd+2
  5486  0E2E  1C03               	skipc
  5487  0E2F  03E4               	decf	??___fladd+3,f
  5488  0E30  0864               	movf	??___fladd+3,w
  5489  0E31  3A80               	xorlw	128
  5490  0E32  00FF               	movwf	btemp+1
  5491  0E33  3080               	movlw	128
  5492  0E34  027F               	subwf	btemp+1,w
  5493  0E35  1D03               	skipz
  5494  0E36  2E39               	goto	u2435
  5495  0E37  301A               	movlw	26
  5496  0E38  0263               	subwf	??___fladd+2,w
  5497  0E39                     u2435:
  5498  0E39  1C03               	skipc
  5499  0E3A  2E3C               	goto	u2431
  5500  0E3B  2E3D               	goto	u2430
  5501  0E3C                     u2431:
  5502  0E3C  2E7A               	goto	l2268
  5503  0E3D                     u2430:
  5504  0E3D                     l2254:
  5505  0E3D  1283               	bcf	3,5	;RP0=0, select bank0
  5506  0E3E  1303               	bcf	3,6	;RP1=0, select bank0
  5507  0E3F  085C               	movf	___fladd@b+3,w
  5508  0E40  045B               	iorwf	___fladd@b+2,w
  5509  0E41  045A               	iorwf	___fladd@b+1,w
  5510  0E42  0459               	iorwf	___fladd@b,w
  5511  0E43  1D03               	skipz
  5512  0E44  2E46               	goto	u2441
  5513  0E45  2E48               	goto	u2440
  5514  0E46                     u2441:
  5515  0E46  3001               	movlw	1
  5516  0E47  2E49               	goto	u2450
  5517  0E48                     u2440:
  5518  0E48  3000               	movlw	0
  5519  0E49                     u2450:
  5520  0E49  00E1               	movwf	??___fladd
  5521  0E4A  0861               	movf	??___fladd,w
  5522  0E4B  00EC               	movwf	___fladd@grs
  5523  0E4C  3000               	movlw	0
  5524  0E4D  00DC               	movwf	___fladd@b+3
  5525  0E4E  3000               	movlw	0
  5526  0E4F  00DB               	movwf	___fladd@b+2
  5527  0E50  3000               	movlw	0
  5528  0E51  00DA               	movwf	___fladd@b+1
  5529  0E52  3000               	movlw	0
  5530  0E53  00D9               	movwf	___fladd@b
  5531  0E54  086A               	movf	___fladd@aexp,w
  5532  0E55  00E1               	movwf	??___fladd
  5533  0E56  0861               	movf	??___fladd,w
  5534  0E57  00EB               	movwf	___fladd@bexp
  5535  0E58  2E82               	goto	l660
  5536  0E59                     l662:
  5537  0E59  1C6C               	btfss	___fladd@grs,0
  5538  0E5A  2E5C               	goto	u2461
  5539  0E5B  2E5D               	goto	u2460
  5540  0E5C                     u2461:
  5541  0E5C  2E66               	goto	l2258
  5542  0E5D                     u2460:
  5543  0E5D                     l2256:
  5544  0E5D  086C               	movf	___fladd@grs,w
  5545  0E5E  00E1               	movwf	??___fladd
  5546  0E5F  1003               	clrc
  5547  0E60  0C61               	rrf	??___fladd,w
  5548  0E61  3801               	iorlw	1
  5549  0E62  00E2               	movwf	??___fladd+1
  5550  0E63  0862               	movf	??___fladd+1,w
  5551  0E64  00EC               	movwf	___fladd@grs
  5552  0E65  2E68               	goto	l2260
  5553  0E66                     l2258:
  5554  0E66  1003               	clrc
  5555  0E67  0CEC               	rrf	___fladd@grs,f
  5556  0E68                     l2260:
  5557  0E68  1C59               	btfss	___fladd@b,0
  5558  0E69  2E6B               	goto	u2471
  5559  0E6A  2E6C               	goto	u2470
  5560  0E6B                     u2471:
  5561  0E6B  2E6D               	goto	l2264
  5562  0E6C                     u2470:
  5563  0E6C                     l2262:
  5564  0E6C  17EC               	bsf	___fladd@grs,7
  5565  0E6D                     l2264:
  5566  0E6D  3001               	movlw	1
  5567  0E6E  00E1               	movwf	??___fladd
  5568  0E6F                     u2485:
  5569  0E6F  0D5C               	rlf	___fladd@b+3,w
  5570  0E70  0CDC               	rrf	___fladd@b+3,f
  5571  0E71  0CDB               	rrf	___fladd@b+2,f
  5572  0E72  0CDA               	rrf	___fladd@b+1,f
  5573  0E73  0CD9               	rrf	___fladd@b,f
  5574  0E74  0BE1               	decfsz	??___fladd& (0+127),f
  5575  0E75  2E6F               	goto	u2485
  5576  0E76                     l2266:
  5577  0E76  3001               	movlw	1
  5578  0E77  00E1               	movwf	??___fladd
  5579  0E78  0861               	movf	??___fladd,w
  5580  0E79  07EB               	addwf	___fladd@bexp,f
  5581  0E7A                     l2268:
  5582  0E7A  1283               	bcf	3,5	;RP0=0, select bank0
  5583  0E7B  1303               	bcf	3,6	;RP1=0, select bank0
  5584  0E7C  086A               	movf	___fladd@aexp,w
  5585  0E7D  026B               	subwf	___fladd@bexp,w
  5586  0E7E  1C03               	skipc
  5587  0E7F  2E81               	goto	u2491
  5588  0E80  2E82               	goto	u2490
  5589  0E81                     u2491:
  5590  0E81  2E59               	goto	l662
  5591  0E82                     u2490:
  5592  0E82                     l660:
  5593  0E82  1B69               	btfsc	___fladd@signs,6
  5594  0E83  2E85               	goto	u2501
  5595  0E84  2E86               	goto	u2500
  5596  0E85                     u2501:
  5597  0E85  2ED1               	goto	l2294
  5598  0E86                     u2500:
  5599  0E86                     l2270:
  5600  0E86  086B               	movf	___fladd@bexp,w
  5601  0E87  1D03               	btfss	3,2
  5602  0E88  2E8A               	goto	u2511
  5603  0E89  2E8B               	goto	u2510
  5604  0E8A                     u2511:
  5605  0E8A  2E94               	goto	l2276
  5606  0E8B                     u2510:
  5607  0E8B                     l2272:
  5608  0E8B  3000               	movlw	0
  5609  0E8C  00DC               	movwf	?___fladd+3
  5610  0E8D  3000               	movlw	0
  5611  0E8E  00DB               	movwf	?___fladd+2
  5612  0E8F  3000               	movlw	0
  5613  0E90  00DA               	movwf	?___fladd+1
  5614  0E91  3000               	movlw	0
  5615  0E92  00D9               	movwf	?___fladd
  5616  0E93  2FFF               	goto	l669
  5617  0E94                     l2276:
  5618  0E94  085D               	movf	___fladd@a,w
  5619  0E95  07D9               	addwf	___fladd@b,f
  5620  0E96  085E               	movf	___fladd@a+1,w
  5621  0E97  1103               	clrz
  5622  0E98  1803               	skipnc
  5623  0E99  3E01               	addlw	1
  5624  0E9A  1903               	skipnz
  5625  0E9B  2E9D               	goto	u2521
  5626  0E9C  07DA               	addwf	___fladd@b+1,f
  5627  0E9D                     u2521:
  5628  0E9D  085F               	movf	___fladd@a+2,w
  5629  0E9E  1103               	clrz
  5630  0E9F  1803               	skipnc
  5631  0EA0  3E01               	addlw	1
  5632  0EA1  1903               	skipnz
  5633  0EA2  2EA4               	goto	u2522
  5634  0EA3  07DB               	addwf	___fladd@b+2,f
  5635  0EA4                     u2522:
  5636  0EA4  0860               	movf	___fladd@a+3,w
  5637  0EA5  1103               	clrz
  5638  0EA6  1803               	skipnc
  5639  0EA7  3E01               	addlw	1
  5640  0EA8  1903               	skipnz
  5641  0EA9  2EAB               	goto	u2523
  5642  0EAA  07DC               	addwf	___fladd@b+3,f
  5643  0EAB                     u2523:
  5644  0EAB                     l2278:
  5645  0EAB  1C5C               	btfss	___fladd@b+3,0
  5646  0EAC  2EAE               	goto	u2531
  5647  0EAD  2EAF               	goto	u2530
  5648  0EAE                     u2531:
  5649  0EAE  2F85               	goto	l2328
  5650  0EAF                     u2530:
  5651  0EAF                     l2280:
  5652  0EAF  1C6C               	btfss	___fladd@grs,0
  5653  0EB0  2EB2               	goto	u2541
  5654  0EB1  2EB3               	goto	u2540
  5655  0EB2                     u2541:
  5656  0EB2  2EBC               	goto	l2284
  5657  0EB3                     u2540:
  5658  0EB3                     l2282:
  5659  0EB3  086C               	movf	___fladd@grs,w
  5660  0EB4  00E1               	movwf	??___fladd
  5661  0EB5  1003               	clrc
  5662  0EB6  0C61               	rrf	??___fladd,w
  5663  0EB7  3801               	iorlw	1
  5664  0EB8  00E2               	movwf	??___fladd+1
  5665  0EB9  0862               	movf	??___fladd+1,w
  5666  0EBA  00EC               	movwf	___fladd@grs
  5667  0EBB  2EBE               	goto	l2286
  5668  0EBC                     l2284:
  5669  0EBC  1003               	clrc
  5670  0EBD  0CEC               	rrf	___fladd@grs,f
  5671  0EBE                     l2286:
  5672  0EBE  1C59               	btfss	___fladd@b,0
  5673  0EBF  2EC1               	goto	u2551
  5674  0EC0  2EC2               	goto	u2550
  5675  0EC1                     u2551:
  5676  0EC1  2EC3               	goto	l2290
  5677  0EC2                     u2550:
  5678  0EC2                     l2288:
  5679  0EC2  17EC               	bsf	___fladd@grs,7
  5680  0EC3                     l2290:
  5681  0EC3  3001               	movlw	1
  5682  0EC4  00E1               	movwf	??___fladd
  5683  0EC5                     u2565:
  5684  0EC5  0D5C               	rlf	___fladd@b+3,w
  5685  0EC6  0CDC               	rrf	___fladd@b+3,f
  5686  0EC7  0CDB               	rrf	___fladd@b+2,f
  5687  0EC8  0CDA               	rrf	___fladd@b+1,f
  5688  0EC9  0CD9               	rrf	___fladd@b,f
  5689  0ECA  0BE1               	decfsz	??___fladd& (0+127),f
  5690  0ECB  2EC5               	goto	u2565
  5691  0ECC                     l2292:
  5692  0ECC  3001               	movlw	1
  5693  0ECD  00E1               	movwf	??___fladd
  5694  0ECE  0861               	movf	??___fladd,w
  5695  0ECF  07EB               	addwf	___fladd@bexp,f
  5696  0ED0  2F85               	goto	l2328
  5697  0ED1                     l2294:
  5698  0ED1  085C               	movf	___fladd@b+3,w
  5699  0ED2  3A80               	xorlw	128
  5700  0ED3  00FF               	movwf	btemp+1
  5701  0ED4  0860               	movf	___fladd@a+3,w
  5702  0ED5  3A80               	xorlw	128
  5703  0ED6  027F               	subwf	btemp+1,w
  5704  0ED7  1D03               	skipz
  5705  0ED8  2EE3               	goto	u2573
  5706  0ED9  085F               	movf	___fladd@a+2,w
  5707  0EDA  025B               	subwf	___fladd@b+2,w
  5708  0EDB  1D03               	skipz
  5709  0EDC  2EE3               	goto	u2573
  5710  0EDD  085E               	movf	___fladd@a+1,w
  5711  0EDE  025A               	subwf	___fladd@b+1,w
  5712  0EDF  1D03               	skipz
  5713  0EE0  2EE3               	goto	u2573
  5714  0EE1  085D               	movf	___fladd@a,w
  5715  0EE2  0259               	subwf	___fladd@b,w
  5716  0EE3                     u2573:
  5717  0EE3  1803               	skipnc
  5718  0EE4  2EE6               	goto	u2571
  5719  0EE5  2EE7               	goto	u2570
  5720  0EE6                     u2571:
  5721  0EE6  2F3F               	goto	l2304
  5722  0EE7                     u2570:
  5723  0EE7                     l2296:
  5724  0EE7  30FF               	movlw	255
  5725  0EE8  00E1               	movwf	??___fladd
  5726  0EE9  30FF               	movlw	255
  5727  0EEA  00E2               	movwf	??___fladd+1
  5728  0EEB  30FF               	movlw	255
  5729  0EEC  00E3               	movwf	??___fladd+2
  5730  0EED  30FF               	movlw	255
  5731  0EEE  00E4               	movwf	??___fladd+3
  5732  0EEF  085D               	movf	___fladd@a,w
  5733  0EF0  00E5               	movwf	??___fladd+4
  5734  0EF1  085E               	movf	___fladd@a+1,w
  5735  0EF2  00E6               	movwf	??___fladd+5
  5736  0EF3  085F               	movf	___fladd@a+2,w
  5737  0EF4  00E7               	movwf	??___fladd+6
  5738  0EF5  0860               	movf	___fladd@a+3,w
  5739  0EF6  00E8               	movwf	??___fladd+7
  5740  0EF7  0859               	movf	___fladd@b,w
  5741  0EF8  02E5               	subwf	??___fladd+4,f
  5742  0EF9  085A               	movf	___fladd@b+1,w
  5743  0EFA  1C03               	skipc
  5744  0EFB  0F5A               	incfsz	___fladd@b+1,w
  5745  0EFC  2EFE               	goto	u2581
  5746  0EFD  2EFF               	goto	u2582
  5747  0EFE                     u2581:
  5748  0EFE  02E6               	subwf	??___fladd+5,f
  5749  0EFF                     u2582:
  5750  0EFF  085B               	movf	___fladd@b+2,w
  5751  0F00  1C03               	skipc
  5752  0F01  0F5B               	incfsz	___fladd@b+2,w
  5753  0F02  2F04               	goto	u2583
  5754  0F03  2F05               	goto	u2584
  5755  0F04                     u2583:
  5756  0F04  02E7               	subwf	??___fladd+6,f
  5757  0F05                     u2584:
  5758  0F05  085C               	movf	___fladd@b+3,w
  5759  0F06  1C03               	skipc
  5760  0F07  0F5C               	incfsz	___fladd@b+3,w
  5761  0F08  2F0A               	goto	u2585
  5762  0F09  2F0B               	goto	u2586
  5763  0F0A                     u2585:
  5764  0F0A  02E8               	subwf	??___fladd+7,f
  5765  0F0B                     u2586:
  5766  0F0B  0865               	movf	??___fladd+4,w
  5767  0F0C  07E1               	addwf	??___fladd,f
  5768  0F0D  0866               	movf	??___fladd+5,w
  5769  0F0E  1803               	skipnc
  5770  0F0F  0F66               	incfsz	??___fladd+5,w
  5771  0F10  2F12               	goto	u2590
  5772  0F11  2F13               	goto	u2591
  5773  0F12                     u2590:
  5774  0F12  07E2               	addwf	??___fladd+1,f
  5775  0F13                     u2591:
  5776  0F13  0867               	movf	??___fladd+6,w
  5777  0F14  1803               	skipnc
  5778  0F15  0F67               	incfsz	??___fladd+6,w
  5779  0F16  2F18               	goto	u2592
  5780  0F17  2F19               	goto	u2593
  5781  0F18                     u2592:
  5782  0F18  07E3               	addwf	??___fladd+2,f
  5783  0F19                     u2593:
  5784  0F19  0868               	movf	??___fladd+7,w
  5785  0F1A  1803               	skipnc
  5786  0F1B  0A68               	incf	??___fladd+7,w
  5787  0F1C  07E4               	addwf	??___fladd+3,f
  5788  0F1D  0864               	movf	??___fladd+3,w
  5789  0F1E  00DC               	movwf	___fladd@b+3
  5790  0F1F  0863               	movf	??___fladd+2,w
  5791  0F20  00DB               	movwf	___fladd@b+2
  5792  0F21  0862               	movf	??___fladd+1,w
  5793  0F22  00DA               	movwf	___fladd@b+1
  5794  0F23  0861               	movf	??___fladd,w
  5795  0F24  00D9               	movwf	___fladd@b
  5796  0F25                     l2298:
  5797  0F25  3080               	movlw	128
  5798  0F26  00E1               	movwf	??___fladd
  5799  0F27  0861               	movf	??___fladd,w
  5800  0F28  06E9               	xorwf	___fladd@signs,f
  5801  0F29  09EC               	comf	___fladd@grs,f
  5802  0F2A  0AEC               	incf	___fladd@grs,f
  5803  0F2B                     l2300:
  5804  0F2B  086C               	movf	___fladd@grs,w
  5805  0F2C  1D03               	btfss	3,2
  5806  0F2D  2F2F               	goto	u2601
  5807  0F2E  2F30               	goto	u2600
  5808  0F2F                     u2601:
  5809  0F2F  2F4D               	goto	l677
  5810  0F30                     u2600:
  5811  0F30                     l2302:
  5812  0F30  3001               	movlw	1
  5813  0F31  07D9               	addwf	___fladd@b,f
  5814  0F32  3000               	movlw	0
  5815  0F33  1803               	skipnc
  5816  0F34  3001               	movlw	1
  5817  0F35  07DA               	addwf	___fladd@b+1,f
  5818  0F36  3000               	movlw	0
  5819  0F37  1803               	skipnc
  5820  0F38  3001               	movlw	1
  5821  0F39  07DB               	addwf	___fladd@b+2,f
  5822  0F3A  3000               	movlw	0
  5823  0F3B  1803               	skipnc
  5824  0F3C  3001               	movlw	1
  5825  0F3D  07DC               	addwf	___fladd@b+3,f
  5826  0F3E  2F4D               	goto	l677
  5827  0F3F                     l2304:
  5828  0F3F  085D               	movf	___fladd@a,w
  5829  0F40  02D9               	subwf	___fladd@b,f
  5830  0F41  085E               	movf	___fladd@a+1,w
  5831  0F42  1C03               	skipc
  5832  0F43  0F5E               	incfsz	___fladd@a+1,w
  5833  0F44  02DA               	subwf	___fladd@b+1,f
  5834  0F45  085F               	movf	___fladd@a+2,w
  5835  0F46  1C03               	skipc
  5836  0F47  0F5F               	incfsz	___fladd@a+2,w
  5837  0F48  02DB               	subwf	___fladd@b+2,f
  5838  0F49  0860               	movf	___fladd@a+3,w
  5839  0F4A  1C03               	skipc
  5840  0F4B  0F60               	incfsz	___fladd@a+3,w
  5841  0F4C  02DC               	subwf	___fladd@b+3,f
  5842  0F4D                     l677:
  5843  0F4D  085C               	movf	___fladd@b+3,w
  5844  0F4E  045B               	iorwf	___fladd@b+2,w
  5845  0F4F  045A               	iorwf	___fladd@b+1,w
  5846  0F50  0459               	iorwf	___fladd@b,w
  5847  0F51  1D03               	skipz
  5848  0F52  2F54               	goto	u2611
  5849  0F53  2F55               	goto	u2610
  5850  0F54                     u2611:
  5851  0F54  2F81               	goto	l2326
  5852  0F55                     u2610:
  5853  0F55                     l2306:
  5854  0F55  086C               	movf	___fladd@grs,w
  5855  0F56  1D03               	btfss	3,2
  5856  0F57  2F59               	goto	u2621
  5857  0F58  2F5A               	goto	u2620
  5858  0F59                     u2621:
  5859  0F59  2F81               	goto	l2326
  5860  0F5A                     u2620:
  5861  0F5A                     l2308:
  5862  0F5A  3000               	movlw	0
  5863  0F5B  00DC               	movwf	?___fladd+3
  5864  0F5C  3000               	movlw	0
  5865  0F5D  00DB               	movwf	?___fladd+2
  5866  0F5E  3000               	movlw	0
  5867  0F5F  00DA               	movwf	?___fladd+1
  5868  0F60  3000               	movlw	0
  5869  0F61  00D9               	movwf	?___fladd
  5870  0F62  2FFF               	goto	l669
  5871  0F63                     l2312:
  5872  0F63  3001               	movlw	1
  5873  0F64  00E1               	movwf	??___fladd
  5874  0F65                     u2635:
  5875  0F65  1003               	clrc
  5876  0F66  0DD9               	rlf	___fladd@b,f
  5877  0F67  0DDA               	rlf	___fladd@b+1,f
  5878  0F68  0DDB               	rlf	___fladd@b+2,f
  5879  0F69  0DDC               	rlf	___fladd@b+3,f
  5880  0F6A  0BE1               	decfsz	??___fladd,f
  5881  0F6B  2F65               	goto	u2635
  5882  0F6C                     l2314:
  5883  0F6C  1FEC               	btfss	___fladd@grs,7
  5884  0F6D  2F6F               	goto	u2641
  5885  0F6E  2F70               	goto	u2640
  5886  0F6F                     u2641:
  5887  0F6F  2F71               	goto	l681
  5888  0F70                     u2640:
  5889  0F70                     l2316:
  5890  0F70  1459               	bsf	___fladd@b,0
  5891  0F71                     l681:
  5892  0F71  1C6C               	btfss	___fladd@grs,0
  5893  0F72  2F74               	goto	u2651
  5894  0F73  2F75               	goto	u2650
  5895  0F74                     u2651:
  5896  0F74  2F78               	goto	l2320
  5897  0F75                     u2650:
  5898  0F75                     l2318:
  5899  0F75  1403               	setc
  5900  0F76  0DEC               	rlf	___fladd@grs,f
  5901  0F77  2F7A               	goto	l2322
  5902  0F78                     l2320:
  5903  0F78  1003               	clrc
  5904  0F79  0DEC               	rlf	___fladd@grs,f
  5905  0F7A                     l2322:
  5906  0F7A  086B               	movf	___fladd@bexp,w
  5907  0F7B  1903               	btfsc	3,2
  5908  0F7C  2F7E               	goto	u2661
  5909  0F7D  2F7F               	goto	u2660
  5910  0F7E                     u2661:
  5911  0F7E  2F81               	goto	l2326
  5912  0F7F                     u2660:
  5913  0F7F                     l2324:
  5914  0F7F  3001               	movlw	1
  5915  0F80  02EB               	subwf	___fladd@bexp,f
  5916  0F81                     l2326:
  5917  0F81  1FDB               	btfss	___fladd@b+2,7
  5918  0F82  2F84               	goto	u2671
  5919  0F83  2F85               	goto	u2670
  5920  0F84                     u2671:
  5921  0F84  2F63               	goto	l2312
  5922  0F85                     u2670:
  5923  0F85                     l2328:
  5924  0F85  01EA               	clrf	___fladd@aexp
  5925  0F86                     l2330:
  5926  0F86  1FEC               	btfss	___fladd@grs,7
  5927  0F87  2F89               	goto	u2681
  5928  0F88  2F8A               	goto	u2680
  5929  0F89                     u2681:
  5930  0F89  2F98               	goto	l2338
  5931  0F8A                     u2680:
  5932  0F8A                     l2332:
  5933  0F8A  086C               	movf	___fladd@grs,w
  5934  0F8B  397F               	andlw	127
  5935  0F8C  1903               	btfsc	3,2
  5936  0F8D  2F8F               	goto	u2691
  5937  0F8E  2F90               	goto	u2690
  5938  0F8F                     u2691:
  5939  0F8F  2F93               	goto	l687
  5940  0F90                     u2690:
  5941  0F90                     l2334:
  5942  0F90  01EA               	clrf	___fladd@aexp
  5943  0F91  0AEA               	incf	___fladd@aexp,f
  5944  0F92  2F98               	goto	l2338
  5945  0F93                     l687:
  5946  0F93  1C59               	btfss	___fladd@b,0
  5947  0F94  2F96               	goto	u2701
  5948  0F95  2F97               	goto	u2700
  5949  0F96                     u2701:
  5950  0F96  2F98               	goto	l2338
  5951  0F97                     u2700:
  5952  0F97  2F90               	goto	l2334
  5953  0F98                     l2338:
  5954  0F98  086A               	movf	___fladd@aexp,w
  5955  0F99  1903               	btfsc	3,2
  5956  0F9A  2F9C               	goto	u2711
  5957  0F9B  2F9D               	goto	u2710
  5958  0F9C                     u2711:
  5959  0F9C  2FD1               	goto	l690
  5960  0F9D                     u2710:
  5961  0F9D                     l2340:
  5962  0F9D  3001               	movlw	1
  5963  0F9E  07D9               	addwf	___fladd@b,f
  5964  0F9F  3000               	movlw	0
  5965  0FA0  1803               	skipnc
  5966  0FA1  3001               	movlw	1
  5967  0FA2  07DA               	addwf	___fladd@b+1,f
  5968  0FA3  3000               	movlw	0
  5969  0FA4  1803               	skipnc
  5970  0FA5  3001               	movlw	1
  5971  0FA6  07DB               	addwf	___fladd@b+2,f
  5972  0FA7  3000               	movlw	0
  5973  0FA8  1803               	skipnc
  5974  0FA9  3001               	movlw	1
  5975  0FAA  07DC               	addwf	___fladd@b+3,f
  5976  0FAB                     l2342:
  5977  0FAB  1C5C               	btfss	___fladd@b+3,0
  5978  0FAC  2FAE               	goto	u2721
  5979  0FAD  2FAF               	goto	u2720
  5980  0FAE                     u2721:
  5981  0FAE  2FD1               	goto	l690
  5982  0FAF                     u2720:
  5983  0FAF                     l2344:
  5984  0FAF  0859               	movf	___fladd@b,w
  5985  0FB0  00E1               	movwf	??___fladd
  5986  0FB1  085A               	movf	___fladd@b+1,w
  5987  0FB2  00E2               	movwf	??___fladd+1
  5988  0FB3  085B               	movf	___fladd@b+2,w
  5989  0FB4  00E3               	movwf	??___fladd+2
  5990  0FB5  085C               	movf	___fladd@b+3,w
  5991  0FB6  00E4               	movwf	??___fladd+3
  5992  0FB7  3001               	movlw	1
  5993  0FB8  00E5               	movwf	??___fladd+4
  5994  0FB9                     u2735:
  5995  0FB9  0D64               	rlf	??___fladd+3,w
  5996  0FBA  0CE4               	rrf	??___fladd+3,f
  5997  0FBB  0CE3               	rrf	??___fladd+2,f
  5998  0FBC  0CE2               	rrf	??___fladd+1,f
  5999  0FBD  0CE1               	rrf	??___fladd,f
  6000  0FBE                     u2730:
  6001  0FBE  0BE5               	decfsz	??___fladd+4,f
  6002  0FBF  2FB9               	goto	u2735
  6003  0FC0  0864               	movf	??___fladd+3,w
  6004  0FC1  00DC               	movwf	___fladd@b+3
  6005  0FC2  0863               	movf	??___fladd+2,w
  6006  0FC3  00DB               	movwf	___fladd@b+2
  6007  0FC4  0862               	movf	??___fladd+1,w
  6008  0FC5  00DA               	movwf	___fladd@b+1
  6009  0FC6  0861               	movf	??___fladd,w
  6010  0FC7  00D9               	movwf	___fladd@b
  6011  0FC8  0A6B               	incf	___fladd@bexp,w
  6012  0FC9  1903               	btfsc	3,2
  6013  0FCA  2FCC               	goto	u2741
  6014  0FCB  2FCD               	goto	u2740
  6015  0FCC                     u2741:
  6016  0FCC  2FD1               	goto	l690
  6017  0FCD                     u2740:
  6018  0FCD                     l2346:
  6019  0FCD  3001               	movlw	1
  6020  0FCE  00E1               	movwf	??___fladd
  6021  0FCF  0861               	movf	??___fladd,w
  6022  0FD0  07EB               	addwf	___fladd@bexp,f
  6023  0FD1                     l690:
  6024  0FD1  0A6B               	incf	___fladd@bexp,w
  6025  0FD2  1903               	btfsc	3,2
  6026  0FD3  2FD5               	goto	u2751
  6027  0FD4  2FD6               	goto	u2750
  6028  0FD5                     u2751:
  6029  0FD5  2FDB               	goto	l2350
  6030  0FD6                     u2750:
  6031  0FD6                     l2348:
  6032  0FD6  086B               	movf	___fladd@bexp,w
  6033  0FD7  1D03               	btfss	3,2
  6034  0FD8  2FDA               	goto	u2761
  6035  0FD9  2FDB               	goto	u2760
  6036  0FDA                     u2761:
  6037  0FDA  2FE9               	goto	l2356
  6038  0FDB                     u2760:
  6039  0FDB                     l2350:
  6040  0FDB  3000               	movlw	0
  6041  0FDC  00DC               	movwf	___fladd@b+3
  6042  0FDD  3000               	movlw	0
  6043  0FDE  00DB               	movwf	___fladd@b+2
  6044  0FDF  3000               	movlw	0
  6045  0FE0  00DA               	movwf	___fladd@b+1
  6046  0FE1  3000               	movlw	0
  6047  0FE2  00D9               	movwf	___fladd@b
  6048  0FE3                     l2352:
  6049  0FE3  086B               	movf	___fladd@bexp,w
  6050  0FE4  1D03               	btfss	3,2
  6051  0FE5  2FE7               	goto	u2771
  6052  0FE6  2FE8               	goto	u2770
  6053  0FE7                     u2771:
  6054  0FE7  2FE9               	goto	l2356
  6055  0FE8                     u2770:
  6056  0FE8                     l2354:
  6057  0FE8  01E9               	clrf	___fladd@signs
  6058  0FE9                     l2356:
  6059  0FE9  1C6B               	btfss	___fladd@bexp,0
  6060  0FEA  2FEC               	goto	u2781
  6061  0FEB  2FED               	goto	u2780
  6062  0FEC                     u2781:
  6063  0FEC  2FEF               	goto	l2360
  6064  0FED                     u2780:
  6065  0FED                     l2358:
  6066  0FED  17DB               	bsf	___fladd@b+2,7
  6067  0FEE  2FF3               	goto	l698
  6068  0FEF                     l2360:
  6069  0FEF  307F               	movlw	127
  6070  0FF0  00E1               	movwf	??___fladd
  6071  0FF1  0861               	movf	??___fladd,w
  6072  0FF2  05DB               	andwf	___fladd@b+2,f
  6073  0FF3                     l698:
  6074  0FF3  086B               	movf	___fladd@bexp,w
  6075  0FF4  00E1               	movwf	??___fladd
  6076  0FF5  1003               	clrc
  6077  0FF6  0C61               	rrf	??___fladd,w
  6078  0FF7  00E2               	movwf	??___fladd+1
  6079  0FF8  0862               	movf	??___fladd+1,w
  6080  0FF9  00DC               	movwf	___fladd@b+3
  6081  0FFA                     l2362:
  6082  0FFA  1FE9               	btfss	___fladd@signs,7
  6083  0FFB  2FFD               	goto	u2791
  6084  0FFC  2FFE               	goto	u2790
  6085  0FFD                     u2791:
  6086  0FFD  2FFF               	goto	l699
  6087  0FFE                     u2790:
  6088  0FFE                     l2364:
  6089  0FFE  17DC               	bsf	___fladd@b+3,7
  6090  0FFF                     l699:
  6091  0FFF                     l669:
  6092  0FFF  0008               	return
  6093  1000                     __end_of___fladd:
  6094                           
  6095                           	psect	text13
  6096  1746                     __ptext13:	
  6097 ;; *************** function ___xxtofl *****************
  6098 ;; Defined at:
  6099 ;;		line 10 in file "C:\Program Files\Microchip\xc8\v2.36\pic\sources\c90\common\xxtofl.c"
  6100 ;; Parameters:    Size  Location     Type
  6101 ;;  sign            1    wreg     unsigned char 
  6102 ;;  val             4    0[COMMON] long 
  6103 ;; Auto vars:     Size  Location     Type
  6104 ;;  sign            1    8[COMMON] unsigned char 
  6105 ;;  arg             4   10[COMMON] unsigned long 
  6106 ;;  exp             1    9[COMMON] unsigned char 
  6107 ;; Return value:  Size  Location     Type
  6108 ;;                  4    0[COMMON] unsigned char 
  6109 ;; Registers used:
  6110 ;;		wreg, status,2, status,0
  6111 ;; Tracked objects:
  6112 ;;		On entry : 0/0
  6113 ;;		On exit  : 0/0
  6114 ;;		Unchanged: 0/0
  6115 ;; Data sizes:     COMMON   BANK0   BANK1   BANK3   BANK2
  6116 ;;      Params:         4       0       0       0       0
  6117 ;;      Locals:         6       0       0       0       0
  6118 ;;      Temps:          4       0       0       0       0
  6119 ;;      Totals:        14       0       0       0       0
  6120 ;;Total ram usage:       14 bytes
  6121 ;; Hardware stack levels used: 1
  6122 ;; This function calls:
  6123 ;;		Nothing
  6124 ;; This function is called by:
  6125 ;;		_main
  6126 ;;		_log
  6127 ;; This function uses a non-reentrant model
  6128 ;;
  6129                           
  6130  1746                     ___xxtofl:	
  6131                           ;psect for function ___xxtofl
  6132                           
  6133                           
  6134                           ;incstack = 0
  6135                           ; Regs used in ___xxtofl: [wreg+status,2+status,0]
  6136                           ;___xxtofl@sign stored from wreg
  6137  1746  00F8               	movwf	___xxtofl@sign
  6138  1747                     l2646:
  6139  1747  0878               	movf	___xxtofl@sign,w
  6140  1748  1903               	btfsc	3,2
  6141  1749  2F4B               	goto	u3501
  6142  174A  2F4C               	goto	u3500
  6143  174B                     u3501:
  6144  174B  2F60               	goto	l2652
  6145  174C                     u3500:
  6146  174C                     l2648:
  6147  174C  1FF3               	btfss	___xxtofl@val+3,7
  6148  174D  2F4F               	goto	u3511
  6149  174E  2F50               	goto	u3510
  6150  174F                     u3511:
  6151  174F  2F60               	goto	l2652
  6152  1750                     u3510:
  6153  1750                     l2650:
  6154  1750  0970               	comf	___xxtofl@val,w
  6155  1751  00FA               	movwf	___xxtofl@arg
  6156  1752  0971               	comf	___xxtofl@val+1,w
  6157  1753  00FB               	movwf	___xxtofl@arg+1
  6158  1754  0972               	comf	___xxtofl@val+2,w
  6159  1755  00FC               	movwf	___xxtofl@arg+2
  6160  1756  0973               	comf	___xxtofl@val+3,w
  6161  1757  00FD               	movwf	___xxtofl@arg+3
  6162  1758  0AFA               	incf	___xxtofl@arg,f
  6163  1759  1903               	skipnz
  6164  175A  0AFB               	incf	___xxtofl@arg+1,f
  6165  175B  1903               	skipnz
  6166  175C  0AFC               	incf	___xxtofl@arg+2,f
  6167  175D  1903               	skipnz
  6168  175E  0AFD               	incf	___xxtofl@arg+3,f
  6169  175F  2F68               	goto	l796
  6170  1760                     l2652:
  6171  1760  0873               	movf	___xxtofl@val+3,w
  6172  1761  00FD               	movwf	___xxtofl@arg+3
  6173  1762  0872               	movf	___xxtofl@val+2,w
  6174  1763  00FC               	movwf	___xxtofl@arg+2
  6175  1764  0871               	movf	___xxtofl@val+1,w
  6176  1765  00FB               	movwf	___xxtofl@arg+1
  6177  1766  0870               	movf	___xxtofl@val,w
  6178  1767  00FA               	movwf	___xxtofl@arg
  6179  1768                     l796:
  6180  1768  0873               	movf	___xxtofl@val+3,w
  6181  1769  0472               	iorwf	___xxtofl@val+2,w
  6182  176A  0471               	iorwf	___xxtofl@val+1,w
  6183  176B  0470               	iorwf	___xxtofl@val,w
  6184  176C  1D03               	skipz
  6185  176D  2F6F               	goto	u3521
  6186  176E  2F70               	goto	u3520
  6187  176F                     u3521:
  6188  176F  2F79               	goto	l2658
  6189  1770                     u3520:
  6190  1770                     l2654:
  6191  1770  3000               	movlw	0
  6192  1771  00F3               	movwf	?___xxtofl+3
  6193  1772  3000               	movlw	0
  6194  1773  00F2               	movwf	?___xxtofl+2
  6195  1774  3000               	movlw	0
  6196  1775  00F1               	movwf	?___xxtofl+1
  6197  1776  3000               	movlw	0
  6198  1777  00F0               	movwf	?___xxtofl
  6199  1778  2FFF               	goto	l798
  6200  1779                     l2658:
  6201  1779  3096               	movlw	150
  6202  177A  00F4               	movwf	??___xxtofl
  6203  177B  0874               	movf	??___xxtofl,w
  6204  177C  00F9               	movwf	___xxtofl@exp
  6205  177D  2F8B               	goto	l2662
  6206  177E                     l2660:
  6207  177E  3001               	movlw	1
  6208  177F  00F4               	movwf	??___xxtofl
  6209  1780  0874               	movf	??___xxtofl,w
  6210  1781  07F9               	addwf	___xxtofl@exp,f
  6211  1782  3001               	movlw	1
  6212  1783                     u3535:
  6213  1783  1003               	clrc
  6214  1784  0CFD               	rrf	___xxtofl@arg+3,f
  6215  1785  0CFC               	rrf	___xxtofl@arg+2,f
  6216  1786  0CFB               	rrf	___xxtofl@arg+1,f
  6217  1787  0CFA               	rrf	___xxtofl@arg,f
  6218  1788  3EFF               	addlw	-1
  6219  1789  1D03               	skipz
  6220  178A  2F83               	goto	u3535
  6221  178B                     l2662:
  6222  178B  30FE               	movlw	254
  6223  178C  057D               	andwf	___xxtofl@arg+3,w
  6224  178D  1D03               	btfss	3,2
  6225  178E  2F90               	goto	u3541
  6226  178F  2F91               	goto	u3540
  6227  1790                     u3541:
  6228  1790  2F7E               	goto	l2660
  6229  1791                     u3540:
  6230  1791  2FAD               	goto	l802
  6231  1792                     l2664:
  6232  1792  3001               	movlw	1
  6233  1793  00F4               	movwf	??___xxtofl
  6234  1794  0874               	movf	??___xxtofl,w
  6235  1795  07F9               	addwf	___xxtofl@exp,f
  6236  1796                     l2666:
  6237  1796  3001               	movlw	1
  6238  1797  07FA               	addwf	___xxtofl@arg,f
  6239  1798  3000               	movlw	0
  6240  1799  1803               	skipnc
  6241  179A  3001               	movlw	1
  6242  179B  07FB               	addwf	___xxtofl@arg+1,f
  6243  179C  3000               	movlw	0
  6244  179D  1803               	skipnc
  6245  179E  3001               	movlw	1
  6246  179F  07FC               	addwf	___xxtofl@arg+2,f
  6247  17A0  3000               	movlw	0
  6248  17A1  1803               	skipnc
  6249  17A2  3001               	movlw	1
  6250  17A3  07FD               	addwf	___xxtofl@arg+3,f
  6251  17A4                     l2668:
  6252  17A4  3001               	movlw	1
  6253  17A5                     u3555:
  6254  17A5  1003               	clrc
  6255  17A6  0CFD               	rrf	___xxtofl@arg+3,f
  6256  17A7  0CFC               	rrf	___xxtofl@arg+2,f
  6257  17A8  0CFB               	rrf	___xxtofl@arg+1,f
  6258  17A9  0CFA               	rrf	___xxtofl@arg,f
  6259  17AA  3EFF               	addlw	-1
  6260  17AB  1D03               	skipz
  6261  17AC  2FA5               	goto	u3555
  6262  17AD                     l802:
  6263  17AD  30FF               	movlw	255
  6264  17AE  057D               	andwf	___xxtofl@arg+3,w
  6265  17AF  1D03               	btfss	3,2
  6266  17B0  2FB2               	goto	u3561
  6267  17B1  2FB3               	goto	u3560
  6268  17B2                     u3561:
  6269  17B2  2F92               	goto	l2664
  6270  17B3                     u3560:
  6271  17B3  2FBF               	goto	l2672
  6272  17B4                     l2670:
  6273  17B4  3001               	movlw	1
  6274  17B5  02F9               	subwf	___xxtofl@exp,f
  6275  17B6  3001               	movlw	1
  6276  17B7  00F4               	movwf	??___xxtofl
  6277  17B8                     u3575:
  6278  17B8  1003               	clrc
  6279  17B9  0DFA               	rlf	___xxtofl@arg,f
  6280  17BA  0DFB               	rlf	___xxtofl@arg+1,f
  6281  17BB  0DFC               	rlf	___xxtofl@arg+2,f
  6282  17BC  0DFD               	rlf	___xxtofl@arg+3,f
  6283  17BD  0BF4               	decfsz	??___xxtofl,f
  6284  17BE  2FB8               	goto	u3575
  6285  17BF                     l2672:
  6286  17BF  1BFC               	btfsc	___xxtofl@arg+2,7
  6287  17C0  2FC2               	goto	u3581
  6288  17C1  2FC3               	goto	u3580
  6289  17C2                     u3581:
  6290  17C2  2FC9               	goto	l809
  6291  17C3                     u3580:
  6292  17C3                     l2674:
  6293  17C3  3002               	movlw	2
  6294  17C4  0279               	subwf	___xxtofl@exp,w
  6295  17C5  1803               	skipnc
  6296  17C6  2FC8               	goto	u3591
  6297  17C7  2FC9               	goto	u3590
  6298  17C8                     u3591:
  6299  17C8  2FB4               	goto	l2670
  6300  17C9                     u3590:
  6301  17C9                     l809:
  6302  17C9  1879               	btfsc	___xxtofl@exp,0
  6303  17CA  2FCC               	goto	u3601
  6304  17CB  2FCD               	goto	u3600
  6305  17CC                     u3601:
  6306  17CC  2FD5               	goto	l810
  6307  17CD                     u3600:
  6308  17CD                     l2676:
  6309  17CD  30FF               	movlw	255
  6310  17CE  05FA               	andwf	___xxtofl@arg,f
  6311  17CF  30FF               	movlw	255
  6312  17D0  05FB               	andwf	___xxtofl@arg+1,f
  6313  17D1  307F               	movlw	127
  6314  17D2  05FC               	andwf	___xxtofl@arg+2,f
  6315  17D3  30FF               	movlw	255
  6316  17D4  05FD               	andwf	___xxtofl@arg+3,f
  6317  17D5                     l810:
  6318  17D5  1003               	clrc
  6319  17D6  0CF9               	rrf	___xxtofl@exp,f
  6320  17D7                     l2678:
  6321  17D7  0879               	movf	___xxtofl@exp,w
  6322  17D8  00F4               	movwf	??___xxtofl
  6323  17D9  01F5               	clrf	??___xxtofl+1
  6324  17DA  01F6               	clrf	??___xxtofl+2
  6325  17DB  01F7               	clrf	??___xxtofl+3
  6326  17DC  3018               	movlw	24
  6327  17DD                     u3615:
  6328  17DD  1003               	clrc
  6329  17DE  0DF4               	rlf	??___xxtofl,f
  6330  17DF  0DF5               	rlf	??___xxtofl+1,f
  6331  17E0  0DF6               	rlf	??___xxtofl+2,f
  6332  17E1  0DF7               	rlf	??___xxtofl+3,f
  6333  17E2                     u3610:
  6334  17E2  3EFF               	addlw	-1
  6335  17E3  1D03               	skipz
  6336  17E4  2FDD               	goto	u3615
  6337  17E5  0874               	movf	??___xxtofl,w
  6338  17E6  04FA               	iorwf	___xxtofl@arg,f
  6339  17E7  0875               	movf	??___xxtofl+1,w
  6340  17E8  04FB               	iorwf	___xxtofl@arg+1,f
  6341  17E9  0876               	movf	??___xxtofl+2,w
  6342  17EA  04FC               	iorwf	___xxtofl@arg+2,f
  6343  17EB  0877               	movf	??___xxtofl+3,w
  6344  17EC  04FD               	iorwf	___xxtofl@arg+3,f
  6345  17ED                     l2680:
  6346  17ED  0878               	movf	___xxtofl@sign,w
  6347  17EE  1903               	btfsc	3,2
  6348  17EF  2FF1               	goto	u3621
  6349  17F0  2FF2               	goto	u3620
  6350  17F1                     u3621:
  6351  17F1  2FF7               	goto	l2686
  6352  17F2                     u3620:
  6353  17F2                     l2682:
  6354  17F2  1FF3               	btfss	___xxtofl@val+3,7
  6355  17F3  2FF5               	goto	u3631
  6356  17F4  2FF6               	goto	u3630
  6357  17F5                     u3631:
  6358  17F5  2FF7               	goto	l2686
  6359  17F6                     u3630:
  6360  17F6                     l2684:
  6361  17F6  17FD               	bsf	___xxtofl@arg+3,7
  6362  17F7                     l2686:
  6363  17F7  087D               	movf	___xxtofl@arg+3,w
  6364  17F8  00F3               	movwf	?___xxtofl+3
  6365  17F9  087C               	movf	___xxtofl@arg+2,w
  6366  17FA  00F2               	movwf	?___xxtofl+2
  6367  17FB  087B               	movf	___xxtofl@arg+1,w
  6368  17FC  00F1               	movwf	?___xxtofl+1
  6369  17FD  087A               	movf	___xxtofl@arg,w
  6370  17FE  00F0               	movwf	?___xxtofl
  6371  17FF                     l798:
  6372  17FF  0008               	return
  6373  1800                     __end_of___xxtofl:
  6374                           
  6375                           	psect	text14
  6376  0018                     __ptext14:	
  6377 ;; *************** function ___flge *****************
  6378 ;; Defined at:
  6379 ;;		line 4 in file "C:\Program Files\Microchip\xc8\v2.36\pic\sources\c90\common\flge.c"
  6380 ;; Parameters:    Size  Location     Type
  6381 ;;  ff1             4    0[COMMON] unsigned char 
  6382 ;;  ff2             4    4[COMMON] unsigned char 
  6383 ;; Auto vars:     Size  Location     Type
  6384 ;;		None
  6385 ;; Return value:  Size  Location     Type
  6386 ;;		None               void
  6387 ;; Registers used:
  6388 ;;		wreg, status,2, status,0
  6389 ;; Tracked objects:
  6390 ;;		On entry : 0/0
  6391 ;;		On exit  : 0/0
  6392 ;;		Unchanged: 0/0
  6393 ;; Data sizes:     COMMON   BANK0   BANK1   BANK3   BANK2
  6394 ;;      Params:         8       0       0       0       0
  6395 ;;      Locals:         0       0       0       0       0
  6396 ;;      Temps:          4       0       0       0       0
  6397 ;;      Totals:        12       0       0       0       0
  6398 ;;Total ram usage:       12 bytes
  6399 ;; Hardware stack levels used: 1
  6400 ;; This function calls:
  6401 ;;		Nothing
  6402 ;; This function is called by:
  6403 ;;		_main
  6404 ;;		_log
  6405 ;; This function uses a non-reentrant model
  6406 ;;
  6407                           
  6408  0018                     ___flge:	
  6409                           ;psect for function ___flge
  6410                           
  6411  0018                     l2578:	
  6412                           ;incstack = 0
  6413                           ; Regs used in ___flge: [wreg+status,2+status,0]
  6414                           
  6415  0018  3000               	movlw	0
  6416  0019  0570               	andwf	___flge@ff1,w
  6417  001A  00F8               	movwf	??___flge
  6418  001B  3000               	movlw	0
  6419  001C  0571               	andwf	___flge@ff1+1,w
  6420  001D  00F9               	movwf	??___flge+1
  6421  001E  3080               	movlw	128
  6422  001F  0572               	andwf	___flge@ff1+2,w
  6423  0020  00FA               	movwf	??___flge+2
  6424  0021  307F               	movlw	127
  6425  0022  0573               	andwf	___flge@ff1+3,w
  6426  0023  00FB               	movwf	??___flge+3
  6427  0024  087B               	movf	??___flge+3,w
  6428  0025  047A               	iorwf	??___flge+2,w
  6429  0026  0479               	iorwf	??___flge+1,w
  6430  0027  0478               	iorwf	??___flge,w
  6431  0028  1D03               	skipz
  6432  0029  282B               	goto	u3301
  6433  002A  282C               	goto	u3300
  6434  002B                     u3301:
  6435  002B  2834               	goto	l537
  6436  002C                     u3300:
  6437  002C                     l2580:
  6438  002C  3000               	movlw	0
  6439  002D  00F3               	movwf	___flge@ff1+3
  6440  002E  3000               	movlw	0
  6441  002F  00F2               	movwf	___flge@ff1+2
  6442  0030  3000               	movlw	0
  6443  0031  00F1               	movwf	___flge@ff1+1
  6444  0032  3000               	movlw	0
  6445  0033  00F0               	movwf	___flge@ff1
  6446  0034                     l537:
  6447  0034  3000               	movlw	0
  6448  0035  0574               	andwf	___flge@ff2,w
  6449  0036  00F8               	movwf	??___flge
  6450  0037  3000               	movlw	0
  6451  0038  0575               	andwf	___flge@ff2+1,w
  6452  0039  00F9               	movwf	??___flge+1
  6453  003A  3080               	movlw	128
  6454  003B  0576               	andwf	___flge@ff2+2,w
  6455  003C  00FA               	movwf	??___flge+2
  6456  003D  307F               	movlw	127
  6457  003E  0577               	andwf	___flge@ff2+3,w
  6458  003F  00FB               	movwf	??___flge+3
  6459  0040  087B               	movf	??___flge+3,w
  6460  0041  047A               	iorwf	??___flge+2,w
  6461  0042  0479               	iorwf	??___flge+1,w
  6462  0043  0478               	iorwf	??___flge,w
  6463  0044  1D03               	skipz
  6464  0045  2847               	goto	u3311
  6465  0046  2848               	goto	u3310
  6466  0047                     u3311:
  6467  0047  2850               	goto	l2584
  6468  0048                     u3310:
  6469  0048                     l2582:
  6470  0048  3000               	movlw	0
  6471  0049  00F7               	movwf	___flge@ff2+3
  6472  004A  3000               	movlw	0
  6473  004B  00F6               	movwf	___flge@ff2+2
  6474  004C  3000               	movlw	0
  6475  004D  00F5               	movwf	___flge@ff2+1
  6476  004E  3000               	movlw	0
  6477  004F  00F4               	movwf	___flge@ff2
  6478  0050                     l2584:
  6479  0050  1FF3               	btfss	___flge@ff1+3,7
  6480  0051  2853               	goto	u3321
  6481  0052  2854               	goto	u3320
  6482  0053                     u3321:
  6483  0053  2878               	goto	l2588
  6484  0054                     u3320:
  6485  0054                     l2586:
  6486  0054  3000               	movlw	0
  6487  0055  00F8               	movwf	??___flge
  6488  0056  3000               	movlw	0
  6489  0057  00F9               	movwf	??___flge+1
  6490  0058  3000               	movlw	0
  6491  0059  00FA               	movwf	??___flge+2
  6492  005A  3080               	movlw	128
  6493  005B  00FB               	movwf	??___flge+3
  6494  005C  0870               	movf	___flge@ff1,w
  6495  005D  02F8               	subwf	??___flge,f
  6496  005E  0871               	movf	___flge@ff1+1,w
  6497  005F  1C03               	skipc
  6498  0060  0F71               	incfsz	___flge@ff1+1,w
  6499  0061  2863               	goto	u3331
  6500  0062  2864               	goto	u3332
  6501  0063                     u3331:
  6502  0063  02F9               	subwf	??___flge+1,f
  6503  0064                     u3332:
  6504  0064  0872               	movf	___flge@ff1+2,w
  6505  0065  1C03               	skipc
  6506  0066  0F72               	incfsz	___flge@ff1+2,w
  6507  0067  2869               	goto	u3333
  6508  0068  286A               	goto	u3334
  6509  0069                     u3333:
  6510  0069  02FA               	subwf	??___flge+2,f
  6511  006A                     u3334:
  6512  006A  0873               	movf	___flge@ff1+3,w
  6513  006B  1C03               	skipc
  6514  006C  0F73               	incfsz	___flge@ff1+3,w
  6515  006D  286F               	goto	u3335
  6516  006E  2870               	goto	u3336
  6517  006F                     u3335:
  6518  006F  02FB               	subwf	??___flge+3,f
  6519  0070                     u3336:
  6520  0070  087B               	movf	??___flge+3,w
  6521  0071  00F3               	movwf	___flge@ff1+3
  6522  0072  087A               	movf	??___flge+2,w
  6523  0073  00F2               	movwf	___flge@ff1+2
  6524  0074  0879               	movf	??___flge+1,w
  6525  0075  00F1               	movwf	___flge@ff1+1
  6526  0076  0878               	movf	??___flge,w
  6527  0077  00F0               	movwf	___flge@ff1
  6528  0078                     l2588:
  6529  0078  1FF7               	btfss	___flge@ff2+3,7
  6530  0079  287B               	goto	u3341
  6531  007A  287C               	goto	u3340
  6532  007B                     u3341:
  6533  007B  28A0               	goto	l540
  6534  007C                     u3340:
  6535  007C                     l2590:
  6536  007C  3000               	movlw	0
  6537  007D  00F8               	movwf	??___flge
  6538  007E  3000               	movlw	0
  6539  007F  00F9               	movwf	??___flge+1
  6540  0080  3000               	movlw	0
  6541  0081  00FA               	movwf	??___flge+2
  6542  0082  3080               	movlw	128
  6543  0083  00FB               	movwf	??___flge+3
  6544  0084  0874               	movf	___flge@ff2,w
  6545  0085  02F8               	subwf	??___flge,f
  6546  0086  0875               	movf	___flge@ff2+1,w
  6547  0087  1C03               	skipc
  6548  0088  0F75               	incfsz	___flge@ff2+1,w
  6549  0089  288B               	goto	u3351
  6550  008A  288C               	goto	u3352
  6551  008B                     u3351:
  6552  008B  02F9               	subwf	??___flge+1,f
  6553  008C                     u3352:
  6554  008C  0876               	movf	___flge@ff2+2,w
  6555  008D  1C03               	skipc
  6556  008E  0F76               	incfsz	___flge@ff2+2,w
  6557  008F  2891               	goto	u3353
  6558  0090  2892               	goto	u3354
  6559  0091                     u3353:
  6560  0091  02FA               	subwf	??___flge+2,f
  6561  0092                     u3354:
  6562  0092  0877               	movf	___flge@ff2+3,w
  6563  0093  1C03               	skipc
  6564  0094  0F77               	incfsz	___flge@ff2+3,w
  6565  0095  2897               	goto	u3355
  6566  0096  2898               	goto	u3356
  6567  0097                     u3355:
  6568  0097  02FB               	subwf	??___flge+3,f
  6569  0098                     u3356:
  6570  0098  087B               	movf	??___flge+3,w
  6571  0099  00F7               	movwf	___flge@ff2+3
  6572  009A  087A               	movf	??___flge+2,w
  6573  009B  00F6               	movwf	___flge@ff2+2
  6574  009C  0879               	movf	??___flge+1,w
  6575  009D  00F5               	movwf	___flge@ff2+1
  6576  009E  0878               	movf	??___flge,w
  6577  009F  00F4               	movwf	___flge@ff2
  6578  00A0                     l540:
  6579  00A0  3080               	movlw	128
  6580  00A1  06F3               	xorwf	___flge@ff1+3,f
  6581  00A2  3080               	movlw	128
  6582  00A3  06F7               	xorwf	___flge@ff2+3,f
  6583  00A4  0877               	movf	___flge@ff2+3,w
  6584  00A5  0273               	subwf	___flge@ff1+3,w
  6585  00A6  1D03               	skipz
  6586  00A7  28B2               	goto	u3365
  6587  00A8  0876               	movf	___flge@ff2+2,w
  6588  00A9  0272               	subwf	___flge@ff1+2,w
  6589  00AA  1D03               	skipz
  6590  00AB  28B2               	goto	u3365
  6591  00AC  0875               	movf	___flge@ff2+1,w
  6592  00AD  0271               	subwf	___flge@ff1+1,w
  6593  00AE  1D03               	skipz
  6594  00AF  28B2               	goto	u3365
  6595  00B0  0874               	movf	___flge@ff2,w
  6596  00B1  0270               	subwf	___flge@ff1,w
  6597  00B2                     u3365:
  6598  00B2  1803               	skipnc
  6599  00B3  28B5               	goto	u3361
  6600  00B4  28B6               	goto	u3360
  6601  00B5                     u3361:
  6602  00B5  28B8               	goto	l2594
  6603  00B6                     u3360:
  6604  00B6                     l2592:
  6605  00B6  1003               	clrc
  6606  00B7  28B9               	goto	l541
  6607  00B8                     l2594:
  6608  00B8  1403               	setc
  6609  00B9                     l541:
  6610  00B9  0008               	return
  6611  00BA                     __end_of___flge:
  6612                           
  6613                           	psect	text15
  6614  162F                     __ptext15:	
  6615 ;; *************** function ___fltol *****************
  6616 ;; Defined at:
  6617 ;;		line 43 in file "C:\Program Files\Microchip\xc8\v2.36\pic\sources\c90\common\fltol.c"
  6618 ;; Parameters:    Size  Location     Type
  6619 ;;  f1              4    0[COMMON] unsigned char 
  6620 ;; Auto vars:     Size  Location     Type
  6621 ;;  exp1            1   10[COMMON] unsigned char 
  6622 ;;  sign1           1    9[COMMON] unsigned char 
  6623 ;; Return value:  Size  Location     Type
  6624 ;;                  4    0[COMMON] long 
  6625 ;; Registers used:
  6626 ;;		wreg, status,2, status,0
  6627 ;; Tracked objects:
  6628 ;;		On entry : 0/0
  6629 ;;		On exit  : 0/0
  6630 ;;		Unchanged: 0/0
  6631 ;; Data sizes:     COMMON   BANK0   BANK1   BANK3   BANK2
  6632 ;;      Params:         4       0       0       0       0
  6633 ;;      Locals:         2       0       0       0       0
  6634 ;;      Temps:          5       0       0       0       0
  6635 ;;      Totals:        11       0       0       0       0
  6636 ;;Total ram usage:       11 bytes
  6637 ;; Hardware stack levels used: 1
  6638 ;; This function calls:
  6639 ;;		Nothing
  6640 ;; This function is called by:
  6641 ;;		_main
  6642 ;; This function uses a non-reentrant model
  6643 ;;
  6644                           
  6645  162F                     ___fltol:	
  6646                           ;psect for function ___fltol
  6647                           
  6648  162F                     l2900:	
  6649                           ;incstack = 0
  6650                           ; Regs used in ___fltol: [wreg+status,2+status,0]
  6651                           
  6652  162F  1003               	clrc
  6653  1630  0D72               	rlf	___fltol@f1+2,w
  6654  1631  0D73               	rlf	___fltol@f1+3,w
  6655  1632  00F4               	movwf	??___fltol
  6656  1633  0874               	movf	??___fltol,w
  6657  1634  00FA               	movwf	___fltol@exp1
  6658  1635  087A               	movf	___fltol@exp1,w
  6659  1636  1D03               	btfss	3,2
  6660  1637  2E39               	goto	u3861
  6661  1638  2E3A               	goto	u3860
  6662  1639                     u3861:
  6663  1639  2E43               	goto	l2906
  6664  163A                     u3860:
  6665  163A                     l2902:
  6666  163A  3000               	movlw	0
  6667  163B  00F3               	movwf	?___fltol+3
  6668  163C  3000               	movlw	0
  6669  163D  00F2               	movwf	?___fltol+2
  6670  163E  3000               	movlw	0
  6671  163F  00F1               	movwf	?___fltol+1
  6672  1640  3000               	movlw	0
  6673  1641  00F0               	movwf	?___fltol
  6674  1642  2EA8               	goto	l549
  6675  1643                     l2906:
  6676  1643  0870               	movf	___fltol@f1,w
  6677  1644  00F4               	movwf	??___fltol
  6678  1645  0871               	movf	___fltol@f1+1,w
  6679  1646  00F5               	movwf	??___fltol+1
  6680  1647  0872               	movf	___fltol@f1+2,w
  6681  1648  00F6               	movwf	??___fltol+2
  6682  1649  0873               	movf	___fltol@f1+3,w
  6683  164A  00F7               	movwf	??___fltol+3
  6684  164B  301F               	movlw	31
  6685  164C                     u3875:
  6686  164C  1003               	clrc
  6687  164D  0CF7               	rrf	??___fltol+3,f
  6688  164E  0CF6               	rrf	??___fltol+2,f
  6689  164F  0CF5               	rrf	??___fltol+1,f
  6690  1650  0CF4               	rrf	??___fltol,f
  6691  1651                     u3870:
  6692  1651  3EFF               	addlw	-1
  6693  1652  1D03               	skipz
  6694  1653  2E4C               	goto	u3875
  6695  1654  0874               	movf	??___fltol,w
  6696  1655  00F8               	movwf	??___fltol+4
  6697  1656  0878               	movf	??___fltol+4,w
  6698  1657  00F9               	movwf	___fltol@sign1
  6699  1658                     l2908:
  6700  1658  17F2               	bsf	___fltol@f1+2,7
  6701  1659                     l2910:
  6702  1659  30FF               	movlw	255
  6703  165A  05F0               	andwf	___fltol@f1,f
  6704  165B  30FF               	movlw	255
  6705  165C  05F1               	andwf	___fltol@f1+1,f
  6706  165D  30FF               	movlw	255
  6707  165E  05F2               	andwf	___fltol@f1+2,f
  6708  165F  3000               	movlw	0
  6709  1660  05F3               	andwf	___fltol@f1+3,f
  6710  1661                     l2912:
  6711  1661  3096               	movlw	150
  6712  1662  02FA               	subwf	___fltol@exp1,f
  6713  1663                     l2914:
  6714  1663  1FFA               	btfss	___fltol@exp1,7
  6715  1664  2E66               	goto	u3881
  6716  1665  2E67               	goto	u3880
  6717  1666                     u3881:
  6718  1666  2E81               	goto	l2924
  6719  1667                     u3880:
  6720  1667                     l2916:
  6721  1667  087A               	movf	___fltol@exp1,w
  6722  1668  3A80               	xorlw	128
  6723  1669  3E97               	addlw	151
  6724  166A  1803               	skipnc
  6725  166B  2E6D               	goto	u3891
  6726  166C  2E6E               	goto	u3890
  6727  166D                     u3891:
  6728  166D  2E6F               	goto	l2922
  6729  166E                     u3890:
  6730  166E  2E3A               	goto	l2902
  6731  166F                     l2922:
  6732  166F  3001               	movlw	1
  6733  1670                     u3905:
  6734  1670  1003               	clrc
  6735  1671  0CF3               	rrf	___fltol@f1+3,f
  6736  1672  0CF2               	rrf	___fltol@f1+2,f
  6737  1673  0CF1               	rrf	___fltol@f1+1,f
  6738  1674  0CF0               	rrf	___fltol@f1,f
  6739  1675  3EFF               	addlw	-1
  6740  1676  1D03               	skipz
  6741  1677  2E70               	goto	u3905
  6742  1678  3001               	movlw	1
  6743  1679  00F4               	movwf	??___fltol
  6744  167A  0874               	movf	??___fltol,w
  6745  167B  07FA               	addwf	___fltol@exp1,f
  6746  167C  1D03               	btfss	3,2
  6747  167D  2E7F               	goto	u3911
  6748  167E  2E80               	goto	u3910
  6749  167F                     u3911:
  6750  167F  2E6F               	goto	l2922
  6751  1680                     u3910:
  6752  1680  2E98               	goto	l2932
  6753  1681                     l2924:
  6754  1681  3020               	movlw	32
  6755  1682  027A               	subwf	___fltol@exp1,w
  6756  1683  1C03               	skipc
  6757  1684  2E86               	goto	u3921
  6758  1685  2E87               	goto	u3920
  6759  1686                     u3921:
  6760  1686  2E93               	goto	l556
  6761  1687                     u3920:
  6762  1687  2E3A               	goto	l2902
  6763  1688                     l2930:
  6764  1688  3001               	movlw	1
  6765  1689  00F4               	movwf	??___fltol
  6766  168A                     u3935:
  6767  168A  1003               	clrc
  6768  168B  0DF0               	rlf	___fltol@f1,f
  6769  168C  0DF1               	rlf	___fltol@f1+1,f
  6770  168D  0DF2               	rlf	___fltol@f1+2,f
  6771  168E  0DF3               	rlf	___fltol@f1+3,f
  6772  168F  0BF4               	decfsz	??___fltol,f
  6773  1690  2E8A               	goto	u3935
  6774  1691  3001               	movlw	1
  6775  1692  02FA               	subwf	___fltol@exp1,f
  6776  1693                     l556:
  6777  1693  087A               	movf	___fltol@exp1,w
  6778  1694  1D03               	btfss	3,2
  6779  1695  2E97               	goto	u3941
  6780  1696  2E98               	goto	u3940
  6781  1697                     u3941:
  6782  1697  2E88               	goto	l2930
  6783  1698                     u3940:
  6784  1698                     l2932:
  6785  1698  0879               	movf	___fltol@sign1,w
  6786  1699  1903               	btfsc	3,2
  6787  169A  2E9C               	goto	u3951
  6788  169B  2E9D               	goto	u3950
  6789  169C                     u3951:
  6790  169C  2EA8               	goto	l559
  6791  169D                     u3950:
  6792  169D                     l2934:
  6793  169D  09F0               	comf	___fltol@f1,f
  6794  169E  09F1               	comf	___fltol@f1+1,f
  6795  169F  09F2               	comf	___fltol@f1+2,f
  6796  16A0  09F3               	comf	___fltol@f1+3,f
  6797  16A1  0AF0               	incf	___fltol@f1,f
  6798  16A2  1903               	skipnz
  6799  16A3  0AF1               	incf	___fltol@f1+1,f
  6800  16A4  1903               	skipnz
  6801  16A5  0AF2               	incf	___fltol@f1+2,f
  6802  16A6  1903               	skipnz
  6803  16A7  0AF3               	incf	___fltol@f1+3,f
  6804  16A8                     l559:
  6805  16A8                     l549:
  6806  16A8  0008               	return
  6807  16A9                     __end_of___fltol:
  6808                           
  6809                           	psect	text16
  6810  0B9B                     __ptext16:	
  6811 ;; *************** function ___fldiv *****************
  6812 ;; Defined at:
  6813 ;;		line 8 in file "C:\Program Files\Microchip\xc8\v2.36\pic\sources\c90\common\sprcdiv.c"
  6814 ;; Parameters:    Size  Location     Type
  6815 ;;  a               4   31[BANK0 ] long 
  6816 ;;  b               4   35[BANK0 ] long 
  6817 ;; Auto vars:     Size  Location     Type
  6818 ;;  grs             4   51[BANK0 ] unsigned long 
  6819 ;;  rem             4   44[BANK0 ] unsigned long 
  6820 ;;  new_exp         2   49[BANK0 ] int 
  6821 ;;  aexp            1   56[BANK0 ] unsigned char 
  6822 ;;  bexp            1   55[BANK0 ] unsigned char 
  6823 ;;  sign            1   48[BANK0 ] unsigned char 
  6824 ;; Return value:  Size  Location     Type
  6825 ;;                  4   31[BANK0 ] unsigned char 
  6826 ;; Registers used:
  6827 ;;		wreg, status,2, status,0, btemp+1
  6828 ;; Tracked objects:
  6829 ;;		On entry : 0/0
  6830 ;;		On exit  : 0/0
  6831 ;;		Unchanged: 0/0
  6832 ;; Data sizes:     COMMON   BANK0   BANK1   BANK3   BANK2
  6833 ;;      Params:         0       8       0       0       0
  6834 ;;      Locals:         0      13       0       0       0
  6835 ;;      Temps:          0       5       0       0       0
  6836 ;;      Totals:         0      26       0       0       0
  6837 ;;Total ram usage:       26 bytes
  6838 ;; Hardware stack levels used: 1
  6839 ;; This function calls:
  6840 ;;		Nothing
  6841 ;; This function is called by:
  6842 ;;		_main
  6843 ;; This function uses a non-reentrant model
  6844 ;;
  6845                           
  6846  0B9B                     ___fldiv:	
  6847                           ;psect for function ___fldiv
  6848                           
  6849  0B9B                     l2936:	
  6850                           ;incstack = 0
  6851                           ; Regs used in ___fldiv: [wreg+status,2+status,0+btemp+1]
  6852                           
  6853  0B9B  1283               	bcf	3,5	;RP0=0, select bank0
  6854  0B9C  1303               	bcf	3,6	;RP1=0, select bank0
  6855  0B9D  0846               	movf	___fldiv@b+3,w
  6856  0B9E  3980               	andlw	128
  6857  0B9F  00C7               	movwf	??___fldiv
  6858  0BA0  0847               	movf	??___fldiv,w
  6859  0BA1  00D0               	movwf	___fldiv@sign
  6860  0BA2                     l2938:
  6861  0BA2  0846               	movf	___fldiv@b+3,w
  6862  0BA3  00C7               	movwf	??___fldiv
  6863  0BA4  0747               	addwf	??___fldiv,w
  6864  0BA5  00C8               	movwf	??___fldiv+1
  6865  0BA6  0848               	movf	??___fldiv+1,w
  6866  0BA7  00D7               	movwf	___fldiv@bexp
  6867  0BA8                     l2940:
  6868  0BA8  1FC5               	btfss	___fldiv@b+2,7
  6869  0BA9  2BAB               	goto	u3961
  6870  0BAA  2BAC               	goto	u3960
  6871  0BAB                     u3961:
  6872  0BAB  2BAD               	goto	l2944
  6873  0BAC                     u3960:
  6874  0BAC                     l2942:
  6875  0BAC  1457               	bsf	___fldiv@bexp,0
  6876  0BAD                     l2944:
  6877  0BAD  0857               	movf	___fldiv@bexp,w
  6878  0BAE  1903               	btfsc	3,2
  6879  0BAF  2BB1               	goto	u3971
  6880  0BB0  2BB2               	goto	u3970
  6881  0BB1                     u3971:
  6882  0BB1  2BC2               	goto	l2954
  6883  0BB2                     u3970:
  6884  0BB2                     l2946:
  6885  0BB2  0A57               	incf	___fldiv@bexp,w
  6886  0BB3  1D03               	btfss	3,2
  6887  0BB4  2BB6               	goto	u3981
  6888  0BB5  2BB7               	goto	u3980
  6889  0BB6                     u3981:
  6890  0BB6  2BBF               	goto	l2950
  6891  0BB7                     u3980:
  6892  0BB7                     l2948:
  6893  0BB7  3000               	movlw	0
  6894  0BB8  00C6               	movwf	___fldiv@b+3
  6895  0BB9  3000               	movlw	0
  6896  0BBA  00C5               	movwf	___fldiv@b+2
  6897  0BBB  3000               	movlw	0
  6898  0BBC  00C4               	movwf	___fldiv@b+1
  6899  0BBD  3000               	movlw	0
  6900  0BBE  00C3               	movwf	___fldiv@b
  6901  0BBF                     l2950:
  6902  0BBF  17C5               	bsf	___fldiv@b+2,7
  6903  0BC0                     l2952:
  6904  0BC0  01C6               	clrf	___fldiv@b+3
  6905  0BC1  2BCA               	goto	l2956
  6906  0BC2                     l2954:
  6907  0BC2  3000               	movlw	0
  6908  0BC3  00C6               	movwf	___fldiv@b+3
  6909  0BC4  3000               	movlw	0
  6910  0BC5  00C5               	movwf	___fldiv@b+2
  6911  0BC6  3000               	movlw	0
  6912  0BC7  00C4               	movwf	___fldiv@b+1
  6913  0BC8  3000               	movlw	0
  6914  0BC9  00C3               	movwf	___fldiv@b
  6915  0BCA                     l2956:
  6916  0BCA  0842               	movf	___fldiv@a+3,w
  6917  0BCB  3980               	andlw	128
  6918  0BCC  00C7               	movwf	??___fldiv
  6919  0BCD  0847               	movf	??___fldiv,w
  6920  0BCE  06D0               	xorwf	___fldiv@sign,f
  6921  0BCF                     l2958:
  6922  0BCF  0842               	movf	___fldiv@a+3,w
  6923  0BD0  00C7               	movwf	??___fldiv
  6924  0BD1  0747               	addwf	??___fldiv,w
  6925  0BD2  00C8               	movwf	??___fldiv+1
  6926  0BD3  0848               	movf	??___fldiv+1,w
  6927  0BD4  00D8               	movwf	___fldiv@aexp
  6928  0BD5                     l2960:
  6929  0BD5  1FC1               	btfss	___fldiv@a+2,7
  6930  0BD6  2BD8               	goto	u3991
  6931  0BD7  2BD9               	goto	u3990
  6932  0BD8                     u3991:
  6933  0BD8  2BDA               	goto	l2964
  6934  0BD9                     u3990:
  6935  0BD9                     l2962:
  6936  0BD9  1458               	bsf	___fldiv@aexp,0
  6937  0BDA                     l2964:
  6938  0BDA  0858               	movf	___fldiv@aexp,w
  6939  0BDB  1903               	btfsc	3,2
  6940  0BDC  2BDE               	goto	u4001
  6941  0BDD  2BDF               	goto	u4000
  6942  0BDE                     u4001:
  6943  0BDE  2BEF               	goto	l2974
  6944  0BDF                     u4000:
  6945  0BDF                     l2966:
  6946  0BDF  0A58               	incf	___fldiv@aexp,w
  6947  0BE0  1D03               	btfss	3,2
  6948  0BE1  2BE3               	goto	u4011
  6949  0BE2  2BE4               	goto	u4010
  6950  0BE3                     u4011:
  6951  0BE3  2BEC               	goto	l2970
  6952  0BE4                     u4010:
  6953  0BE4                     l2968:
  6954  0BE4  3000               	movlw	0
  6955  0BE5  00C2               	movwf	___fldiv@a+3
  6956  0BE6  3000               	movlw	0
  6957  0BE7  00C1               	movwf	___fldiv@a+2
  6958  0BE8  3000               	movlw	0
  6959  0BE9  00C0               	movwf	___fldiv@a+1
  6960  0BEA  3000               	movlw	0
  6961  0BEB  00BF               	movwf	___fldiv@a
  6962  0BEC                     l2970:
  6963  0BEC  17C1               	bsf	___fldiv@a+2,7
  6964  0BED                     l2972:
  6965  0BED  01C2               	clrf	___fldiv@a+3
  6966  0BEE  2BF7               	goto	l712
  6967  0BEF                     l2974:
  6968  0BEF  3000               	movlw	0
  6969  0BF0  00C2               	movwf	___fldiv@a+3
  6970  0BF1  3000               	movlw	0
  6971  0BF2  00C1               	movwf	___fldiv@a+2
  6972  0BF3  3000               	movlw	0
  6973  0BF4  00C0               	movwf	___fldiv@a+1
  6974  0BF5  3000               	movlw	0
  6975  0BF6  00BF               	movwf	___fldiv@a
  6976  0BF7                     l712:
  6977  0BF7  0842               	movf	___fldiv@a+3,w
  6978  0BF8  0441               	iorwf	___fldiv@a+2,w
  6979  0BF9  0440               	iorwf	___fldiv@a+1,w
  6980  0BFA  043F               	iorwf	___fldiv@a,w
  6981  0BFB  1D03               	skipz
  6982  0BFC  2BFE               	goto	u4021
  6983  0BFD  2BFF               	goto	u4020
  6984  0BFE                     u4021:
  6985  0BFE  2C18               	goto	l2984
  6986  0BFF                     u4020:
  6987  0BFF                     l2976:
  6988  0BFF  3000               	movlw	0
  6989  0C00  00C6               	movwf	___fldiv@b+3
  6990  0C01  3000               	movlw	0
  6991  0C02  00C5               	movwf	___fldiv@b+2
  6992  0C03  3000               	movlw	0
  6993  0C04  00C4               	movwf	___fldiv@b+1
  6994  0C05  3000               	movlw	0
  6995  0C06  00C3               	movwf	___fldiv@b
  6996  0C07  3080               	movlw	128
  6997  0C08  04C5               	iorwf	___fldiv@b+2,f
  6998  0C09  307F               	movlw	127
  6999  0C0A  04C6               	iorwf	___fldiv@b+3,f
  7000  0C0B                     l2978:
  7001  0C0B  0850               	movf	___fldiv@sign,w
  7002  0C0C  00C7               	movwf	??___fldiv
  7003  0C0D  0847               	movf	??___fldiv,w
  7004  0C0E  04C6               	iorwf	___fldiv@b+3,f
  7005  0C0F                     l2980:
  7006  0C0F  0846               	movf	___fldiv@b+3,w
  7007  0C10  00C2               	movwf	?___fldiv+3
  7008  0C11  0845               	movf	___fldiv@b+2,w
  7009  0C12  00C1               	movwf	?___fldiv+2
  7010  0C13  0844               	movf	___fldiv@b+1,w
  7011  0C14  00C0               	movwf	?___fldiv+1
  7012  0C15  0843               	movf	___fldiv@b,w
  7013  0C16  00BF               	movwf	?___fldiv
  7014  0C17  2D77               	goto	l714
  7015  0C18                     l2984:
  7016  0C18  0857               	movf	___fldiv@bexp,w
  7017  0C19  1D03               	btfss	3,2
  7018  0C1A  2C1C               	goto	u4031
  7019  0C1B  2C1D               	goto	u4030
  7020  0C1C                     u4031:
  7021  0C1C  2C26               	goto	l2990
  7022  0C1D                     u4030:
  7023  0C1D                     l2986:
  7024  0C1D  3000               	movlw	0
  7025  0C1E  00C2               	movwf	?___fldiv+3
  7026  0C1F  3000               	movlw	0
  7027  0C20  00C1               	movwf	?___fldiv+2
  7028  0C21  3000               	movlw	0
  7029  0C22  00C0               	movwf	?___fldiv+1
  7030  0C23  3000               	movlw	0
  7031  0C24  00BF               	movwf	?___fldiv
  7032  0C25  2D77               	goto	l714
  7033  0C26                     l2990:
  7034  0C26  0857               	movf	___fldiv@bexp,w
  7035  0C27  00C7               	movwf	??___fldiv
  7036  0C28  01C8               	clrf	??___fldiv+1
  7037  0C29  0848               	movf	??___fldiv+1,w
  7038  0C2A  00CA               	movwf	??___fldiv+3
  7039  0C2B  0858               	movf	___fldiv@aexp,w
  7040  0C2C  0247               	subwf	??___fldiv,w
  7041  0C2D  00C9               	movwf	??___fldiv+2
  7042  0C2E  1C03               	skipc
  7043  0C2F  03CA               	decf	??___fldiv+3,f
  7044  0C30  0849               	movf	??___fldiv+2,w
  7045  0C31  3E7F               	addlw	127
  7046  0C32  00D1               	movwf	___fldiv@new_exp
  7047  0C33  084A               	movf	??___fldiv+3,w
  7048  0C34  1803               	skipnc
  7049  0C35  3E01               	addlw	1
  7050  0C36  3E00               	addlw	0
  7051  0C37  00D2               	movwf	___fldiv@new_exp+1
  7052  0C38                     l2992:
  7053  0C38  0846               	movf	___fldiv@b+3,w
  7054  0C39  00CF               	movwf	___fldiv@rem+3
  7055  0C3A  0845               	movf	___fldiv@b+2,w
  7056  0C3B  00CE               	movwf	___fldiv@rem+2
  7057  0C3C  0844               	movf	___fldiv@b+1,w
  7058  0C3D  00CD               	movwf	___fldiv@rem+1
  7059  0C3E  0843               	movf	___fldiv@b,w
  7060  0C3F  00CC               	movwf	___fldiv@rem
  7061  0C40                     l2994:
  7062  0C40  3000               	movlw	0
  7063  0C41  00C6               	movwf	___fldiv@b+3
  7064  0C42  3000               	movlw	0
  7065  0C43  00C5               	movwf	___fldiv@b+2
  7066  0C44  3000               	movlw	0
  7067  0C45  00C4               	movwf	___fldiv@b+1
  7068  0C46  3000               	movlw	0
  7069  0C47  00C3               	movwf	___fldiv@b
  7070  0C48                     l2996:
  7071  0C48  3000               	movlw	0
  7072  0C49  00D6               	movwf	___fldiv@grs+3
  7073  0C4A  3000               	movlw	0
  7074  0C4B  00D5               	movwf	___fldiv@grs+2
  7075  0C4C  3000               	movlw	0
  7076  0C4D  00D4               	movwf	___fldiv@grs+1
  7077  0C4E  3000               	movlw	0
  7078  0C4F  00D3               	movwf	___fldiv@grs
  7079  0C50                     l2998:
  7080  0C50  01D8               	clrf	___fldiv@aexp
  7081  0C51  2C9C               	goto	l3018
  7082  0C52                     l3000:
  7083  0C52  0858               	movf	___fldiv@aexp,w
  7084  0C53  1903               	btfsc	3,2
  7085  0C54  2C56               	goto	u4041
  7086  0C55  2C57               	goto	u4040
  7087  0C56                     u4041:
  7088  0C56  2C77               	goto	l3010
  7089  0C57                     u4040:
  7090  0C57                     l3002:
  7091  0C57  3001               	movlw	1
  7092  0C58  00C7               	movwf	??___fldiv
  7093  0C59                     u4055:
  7094  0C59  1003               	clrc
  7095  0C5A  0DCC               	rlf	___fldiv@rem,f
  7096  0C5B  0DCD               	rlf	___fldiv@rem+1,f
  7097  0C5C  0DCE               	rlf	___fldiv@rem+2,f
  7098  0C5D  0DCF               	rlf	___fldiv@rem+3,f
  7099  0C5E  0BC7               	decfsz	??___fldiv,f
  7100  0C5F  2C59               	goto	u4055
  7101  0C60  3001               	movlw	1
  7102  0C61  00C7               	movwf	??___fldiv
  7103  0C62                     u4065:
  7104  0C62  1003               	clrc
  7105  0C63  0DC3               	rlf	___fldiv@b,f
  7106  0C64  0DC4               	rlf	___fldiv@b+1,f
  7107  0C65  0DC5               	rlf	___fldiv@b+2,f
  7108  0C66  0DC6               	rlf	___fldiv@b+3,f
  7109  0C67  0BC7               	decfsz	??___fldiv,f
  7110  0C68  2C62               	goto	u4065
  7111  0C69                     l3004:
  7112  0C69  1FD6               	btfss	___fldiv@grs+3,7
  7113  0C6A  2C6C               	goto	u4071
  7114  0C6B  2C6D               	goto	u4070
  7115  0C6C                     u4071:
  7116  0C6C  2C6E               	goto	l3008
  7117  0C6D                     u4070:
  7118  0C6D                     l3006:
  7119  0C6D  1443               	bsf	___fldiv@b,0
  7120  0C6E                     l3008:
  7121  0C6E  3001               	movlw	1
  7122  0C6F  00C7               	movwf	??___fldiv
  7123  0C70                     u4085:
  7124  0C70  1003               	clrc
  7125  0C71  0DD3               	rlf	___fldiv@grs,f
  7126  0C72  0DD4               	rlf	___fldiv@grs+1,f
  7127  0C73  0DD5               	rlf	___fldiv@grs+2,f
  7128  0C74  0DD6               	rlf	___fldiv@grs+3,f
  7129  0C75  0BC7               	decfsz	??___fldiv,f
  7130  0C76  2C70               	goto	u4085
  7131  0C77                     l3010:
  7132  0C77  0842               	movf	___fldiv@a+3,w
  7133  0C78  024F               	subwf	___fldiv@rem+3,w
  7134  0C79  1D03               	skipz
  7135  0C7A  2C85               	goto	u4095
  7136  0C7B  0841               	movf	___fldiv@a+2,w
  7137  0C7C  024E               	subwf	___fldiv@rem+2,w
  7138  0C7D  1D03               	skipz
  7139  0C7E  2C85               	goto	u4095
  7140  0C7F  0840               	movf	___fldiv@a+1,w
  7141  0C80  024D               	subwf	___fldiv@rem+1,w
  7142  0C81  1D03               	skipz
  7143  0C82  2C85               	goto	u4095
  7144  0C83  083F               	movf	___fldiv@a,w
  7145  0C84  024C               	subwf	___fldiv@rem,w
  7146  0C85                     u4095:
  7147  0C85  1C03               	skipc
  7148  0C86  2C88               	goto	u4091
  7149  0C87  2C89               	goto	u4090
  7150  0C88                     u4091:
  7151  0C88  2C98               	goto	l3016
  7152  0C89                     u4090:
  7153  0C89                     l3012:
  7154  0C89  1756               	bsf	___fldiv@grs+3,6
  7155  0C8A                     l3014:
  7156  0C8A  083F               	movf	___fldiv@a,w
  7157  0C8B  02CC               	subwf	___fldiv@rem,f
  7158  0C8C  0840               	movf	___fldiv@a+1,w
  7159  0C8D  1C03               	skipc
  7160  0C8E  0F40               	incfsz	___fldiv@a+1,w
  7161  0C8F  02CD               	subwf	___fldiv@rem+1,f
  7162  0C90  0841               	movf	___fldiv@a+2,w
  7163  0C91  1C03               	skipc
  7164  0C92  0F41               	incfsz	___fldiv@a+2,w
  7165  0C93  02CE               	subwf	___fldiv@rem+2,f
  7166  0C94  0842               	movf	___fldiv@a+3,w
  7167  0C95  1C03               	skipc
  7168  0C96  0F42               	incfsz	___fldiv@a+3,w
  7169  0C97  02CF               	subwf	___fldiv@rem+3,f
  7170  0C98                     l3016:
  7171  0C98  3001               	movlw	1
  7172  0C99  00C7               	movwf	??___fldiv
  7173  0C9A  0847               	movf	??___fldiv,w
  7174  0C9B  07D8               	addwf	___fldiv@aexp,f
  7175  0C9C                     l3018:
  7176  0C9C  301A               	movlw	26
  7177  0C9D  0258               	subwf	___fldiv@aexp,w
  7178  0C9E  1C03               	skipc
  7179  0C9F  2CA1               	goto	u4101
  7180  0CA0  2CA2               	goto	u4100
  7181  0CA1                     u4101:
  7182  0CA1  2C52               	goto	l3000
  7183  0CA2                     u4100:
  7184  0CA2                     l3020:
  7185  0CA2  084F               	movf	___fldiv@rem+3,w
  7186  0CA3  044E               	iorwf	___fldiv@rem+2,w
  7187  0CA4  044D               	iorwf	___fldiv@rem+1,w
  7188  0CA5  044C               	iorwf	___fldiv@rem,w
  7189  0CA6  1903               	skipnz
  7190  0CA7  2CA9               	goto	u4111
  7191  0CA8  2CAA               	goto	u4110
  7192  0CA9                     u4111:
  7193  0CA9  2CC9               	goto	l3034
  7194  0CAA                     u4110:
  7195  0CAA                     l3022:
  7196  0CAA  1453               	bsf	___fldiv@grs,0
  7197  0CAB  2CC9               	goto	l3034
  7198  0CAC                     l3024:
  7199  0CAC  3001               	movlw	1
  7200  0CAD  00C7               	movwf	??___fldiv
  7201  0CAE                     u4125:
  7202  0CAE  1003               	clrc
  7203  0CAF  0DC3               	rlf	___fldiv@b,f
  7204  0CB0  0DC4               	rlf	___fldiv@b+1,f
  7205  0CB1  0DC5               	rlf	___fldiv@b+2,f
  7206  0CB2  0DC6               	rlf	___fldiv@b+3,f
  7207  0CB3  0BC7               	decfsz	??___fldiv,f
  7208  0CB4  2CAE               	goto	u4125
  7209  0CB5                     l3026:
  7210  0CB5  1FD6               	btfss	___fldiv@grs+3,7
  7211  0CB6  2CB8               	goto	u4131
  7212  0CB7  2CB9               	goto	u4130
  7213  0CB8                     u4131:
  7214  0CB8  2CBA               	goto	l3030
  7215  0CB9                     u4130:
  7216  0CB9                     l3028:
  7217  0CB9  1443               	bsf	___fldiv@b,0
  7218  0CBA                     l3030:
  7219  0CBA  3001               	movlw	1
  7220  0CBB  00C7               	movwf	??___fldiv
  7221  0CBC                     u4145:
  7222  0CBC  1003               	clrc
  7223  0CBD  0DD3               	rlf	___fldiv@grs,f
  7224  0CBE  0DD4               	rlf	___fldiv@grs+1,f
  7225  0CBF  0DD5               	rlf	___fldiv@grs+2,f
  7226  0CC0  0DD6               	rlf	___fldiv@grs+3,f
  7227  0CC1  0BC7               	decfsz	??___fldiv,f
  7228  0CC2  2CBC               	goto	u4145
  7229  0CC3                     l3032:
  7230  0CC3  30FF               	movlw	255
  7231  0CC4  07D1               	addwf	___fldiv@new_exp,f
  7232  0CC5  1803               	skipnc
  7233  0CC6  0AD2               	incf	___fldiv@new_exp+1,f
  7234  0CC7  30FF               	movlw	255
  7235  0CC8  07D2               	addwf	___fldiv@new_exp+1,f
  7236  0CC9                     l3034:
  7237  0CC9  1FC5               	btfss	___fldiv@b+2,7
  7238  0CCA  2CCC               	goto	u4151
  7239  0CCB  2CCD               	goto	u4150
  7240  0CCC                     u4151:
  7241  0CCC  2CAC               	goto	l3024
  7242  0CCD                     u4150:
  7243  0CCD                     l3036:
  7244  0CCD  01D8               	clrf	___fldiv@aexp
  7245  0CCE                     l3038:
  7246  0CCE  1FD6               	btfss	___fldiv@grs+3,7
  7247  0CCF  2CD1               	goto	u4161
  7248  0CD0  2CD2               	goto	u4160
  7249  0CD1                     u4161:
  7250  0CD1  2CEE               	goto	l3046
  7251  0CD2                     u4160:
  7252  0CD2                     l3040:
  7253  0CD2  30FF               	movlw	255
  7254  0CD3  0553               	andwf	___fldiv@grs,w
  7255  0CD4  00C7               	movwf	??___fldiv
  7256  0CD5  30FF               	movlw	255
  7257  0CD6  0554               	andwf	___fldiv@grs+1,w
  7258  0CD7  00C8               	movwf	??___fldiv+1
  7259  0CD8  30FF               	movlw	255
  7260  0CD9  0555               	andwf	___fldiv@grs+2,w
  7261  0CDA  00C9               	movwf	??___fldiv+2
  7262  0CDB  307F               	movlw	127
  7263  0CDC  0556               	andwf	___fldiv@grs+3,w
  7264  0CDD  00CA               	movwf	??___fldiv+3
  7265  0CDE  084A               	movf	??___fldiv+3,w
  7266  0CDF  0449               	iorwf	??___fldiv+2,w
  7267  0CE0  0448               	iorwf	??___fldiv+1,w
  7268  0CE1  0447               	iorwf	??___fldiv,w
  7269  0CE2  1903               	skipnz
  7270  0CE3  2CE5               	goto	u4171
  7271  0CE4  2CE6               	goto	u4170
  7272  0CE5                     u4171:
  7273  0CE5  2CE9               	goto	l728
  7274  0CE6                     u4170:
  7275  0CE6                     l3042:
  7276  0CE6  01D8               	clrf	___fldiv@aexp
  7277  0CE7  0AD8               	incf	___fldiv@aexp,f
  7278  0CE8  2CEE               	goto	l3046
  7279  0CE9                     l728:
  7280  0CE9  1C43               	btfss	___fldiv@b,0
  7281  0CEA  2CEC               	goto	u4181
  7282  0CEB  2CED               	goto	u4180
  7283  0CEC                     u4181:
  7284  0CEC  2CEE               	goto	l3046
  7285  0CED                     u4180:
  7286  0CED  2CE6               	goto	l3042
  7287  0CEE                     l3046:
  7288  0CEE  0858               	movf	___fldiv@aexp,w
  7289  0CEF  1903               	btfsc	3,2
  7290  0CF0  2CF2               	goto	u4191
  7291  0CF1  2CF3               	goto	u4190
  7292  0CF2                     u4191:
  7293  0CF2  2D24               	goto	l3056
  7294  0CF3                     u4190:
  7295  0CF3                     l3048:
  7296  0CF3  3001               	movlw	1
  7297  0CF4  07C3               	addwf	___fldiv@b,f
  7298  0CF5  3000               	movlw	0
  7299  0CF6  1803               	skipnc
  7300  0CF7  3001               	movlw	1
  7301  0CF8  07C4               	addwf	___fldiv@b+1,f
  7302  0CF9  3000               	movlw	0
  7303  0CFA  1803               	skipnc
  7304  0CFB  3001               	movlw	1
  7305  0CFC  07C5               	addwf	___fldiv@b+2,f
  7306  0CFD  3000               	movlw	0
  7307  0CFE  1803               	skipnc
  7308  0CFF  3001               	movlw	1
  7309  0D00  07C6               	addwf	___fldiv@b+3,f
  7310  0D01                     l3050:
  7311  0D01  1C46               	btfss	___fldiv@b+3,0
  7312  0D02  2D04               	goto	u4201
  7313  0D03  2D05               	goto	u4200
  7314  0D04                     u4201:
  7315  0D04  2D24               	goto	l3056
  7316  0D05                     u4200:
  7317  0D05                     l3052:
  7318  0D05  0843               	movf	___fldiv@b,w
  7319  0D06  00C7               	movwf	??___fldiv
  7320  0D07  0844               	movf	___fldiv@b+1,w
  7321  0D08  00C8               	movwf	??___fldiv+1
  7322  0D09  0845               	movf	___fldiv@b+2,w
  7323  0D0A  00C9               	movwf	??___fldiv+2
  7324  0D0B  0846               	movf	___fldiv@b+3,w
  7325  0D0C  00CA               	movwf	??___fldiv+3
  7326  0D0D  3001               	movlw	1
  7327  0D0E  00CB               	movwf	??___fldiv+4
  7328  0D0F                     u4215:
  7329  0D0F  0D4A               	rlf	??___fldiv+3,w
  7330  0D10  0CCA               	rrf	??___fldiv+3,f
  7331  0D11  0CC9               	rrf	??___fldiv+2,f
  7332  0D12  0CC8               	rrf	??___fldiv+1,f
  7333  0D13  0CC7               	rrf	??___fldiv,f
  7334  0D14                     u4210:
  7335  0D14  0BCB               	decfsz	??___fldiv+4,f
  7336  0D15  2D0F               	goto	u4215
  7337  0D16  084A               	movf	??___fldiv+3,w
  7338  0D17  00C6               	movwf	___fldiv@b+3
  7339  0D18  0849               	movf	??___fldiv+2,w
  7340  0D19  00C5               	movwf	___fldiv@b+2
  7341  0D1A  0848               	movf	??___fldiv+1,w
  7342  0D1B  00C4               	movwf	___fldiv@b+1
  7343  0D1C  0847               	movf	??___fldiv,w
  7344  0D1D  00C3               	movwf	___fldiv@b
  7345  0D1E                     l3054:
  7346  0D1E  3001               	movlw	1
  7347  0D1F  07D1               	addwf	___fldiv@new_exp,f
  7348  0D20  1803               	skipnc
  7349  0D21  0AD2               	incf	___fldiv@new_exp+1,f
  7350  0D22  3000               	movlw	0
  7351  0D23  07D2               	addwf	___fldiv@new_exp+1,f
  7352  0D24                     l3056:
  7353  0D24  0852               	movf	___fldiv@new_exp+1,w
  7354  0D25  3A80               	xorlw	128
  7355  0D26  00FF               	movwf	btemp+1
  7356  0D27  3080               	movlw	128
  7357  0D28  027F               	subwf	btemp+1,w
  7358  0D29  1D03               	skipz
  7359  0D2A  2D2D               	goto	u4225
  7360  0D2B  30FF               	movlw	255
  7361  0D2C  0251               	subwf	___fldiv@new_exp,w
  7362  0D2D                     u4225:
  7363  0D2D  1C03               	skipc
  7364  0D2E  2D30               	goto	u4221
  7365  0D2F  2D31               	goto	u4220
  7366  0D30                     u4221:
  7367  0D30  2D3F               	goto	l3060
  7368  0D31                     u4220:
  7369  0D31                     l3058:
  7370  0D31  30FF               	movlw	255
  7371  0D32  1283               	bcf	3,5	;RP0=0, select bank0
  7372  0D33  1303               	bcf	3,6	;RP1=0, select bank0
  7373  0D34  00D1               	movwf	___fldiv@new_exp
  7374  0D35  3000               	movlw	0
  7375  0D36  00D2               	movwf	___fldiv@new_exp+1
  7376  0D37  3000               	movlw	0
  7377  0D38  00C6               	movwf	___fldiv@b+3
  7378  0D39  3000               	movlw	0
  7379  0D3A  00C5               	movwf	___fldiv@b+2
  7380  0D3B  3000               	movlw	0
  7381  0D3C  00C4               	movwf	___fldiv@b+1
  7382  0D3D  3000               	movlw	0
  7383  0D3E  00C3               	movwf	___fldiv@b
  7384  0D3F                     l3060:
  7385  0D3F  1283               	bcf	3,5	;RP0=0, select bank0
  7386  0D40  1303               	bcf	3,6	;RP1=0, select bank0
  7387  0D41  0852               	movf	___fldiv@new_exp+1,w
  7388  0D42  3A80               	xorlw	128
  7389  0D43  00FF               	movwf	btemp+1
  7390  0D44  3080               	movlw	128
  7391  0D45  027F               	subwf	btemp+1,w
  7392  0D46  1D03               	skipz
  7393  0D47  2D4A               	goto	u4235
  7394  0D48  3001               	movlw	1
  7395  0D49  0251               	subwf	___fldiv@new_exp,w
  7396  0D4A                     u4235:
  7397  0D4A  1803               	skipnc
  7398  0D4B  2D4D               	goto	u4231
  7399  0D4C  2D4E               	goto	u4230
  7400  0D4D                     u4231:
  7401  0D4D  2D5B               	goto	l734
  7402  0D4E                     u4230:
  7403  0D4E                     l3062:
  7404  0D4E  1283               	bcf	3,5	;RP0=0, select bank0
  7405  0D4F  1303               	bcf	3,6	;RP1=0, select bank0
  7406  0D50  01D1               	clrf	___fldiv@new_exp
  7407  0D51  01D2               	clrf	___fldiv@new_exp+1
  7408  0D52                     l3064:
  7409  0D52  3000               	movlw	0
  7410  0D53  00C6               	movwf	___fldiv@b+3
  7411  0D54  3000               	movlw	0
  7412  0D55  00C5               	movwf	___fldiv@b+2
  7413  0D56  3000               	movlw	0
  7414  0D57  00C4               	movwf	___fldiv@b+1
  7415  0D58  3000               	movlw	0
  7416  0D59  00C3               	movwf	___fldiv@b
  7417  0D5A                     l3066:
  7418  0D5A  01D0               	clrf	___fldiv@sign
  7419  0D5B                     l734:
  7420  0D5B  1283               	bcf	3,5	;RP0=0, select bank0
  7421  0D5C  1303               	bcf	3,6	;RP1=0, select bank0
  7422  0D5D  0851               	movf	___fldiv@new_exp,w
  7423  0D5E  00C7               	movwf	??___fldiv
  7424  0D5F  0847               	movf	??___fldiv,w
  7425  0D60  00D7               	movwf	___fldiv@bexp
  7426  0D61                     l3068:
  7427  0D61  1C57               	btfss	___fldiv@bexp,0
  7428  0D62  2D64               	goto	u4241
  7429  0D63  2D65               	goto	u4240
  7430  0D64                     u4241:
  7431  0D64  2D67               	goto	l3072
  7432  0D65                     u4240:
  7433  0D65                     l3070:
  7434  0D65  17C5               	bsf	___fldiv@b+2,7
  7435  0D66  2D6B               	goto	l736
  7436  0D67                     l3072:
  7437  0D67  307F               	movlw	127
  7438  0D68  00C7               	movwf	??___fldiv
  7439  0D69  0847               	movf	??___fldiv,w
  7440  0D6A  05C5               	andwf	___fldiv@b+2,f
  7441  0D6B                     l736:
  7442  0D6B  0857               	movf	___fldiv@bexp,w
  7443  0D6C  00C7               	movwf	??___fldiv
  7444  0D6D  1003               	clrc
  7445  0D6E  0C47               	rrf	??___fldiv,w
  7446  0D6F  00C8               	movwf	??___fldiv+1
  7447  0D70  0848               	movf	??___fldiv+1,w
  7448  0D71  00C6               	movwf	___fldiv@b+3
  7449  0D72  0850               	movf	___fldiv@sign,w
  7450  0D73  00C7               	movwf	??___fldiv
  7451  0D74  0847               	movf	??___fldiv,w
  7452  0D75  04C6               	iorwf	___fldiv@b+3,f
  7453  0D76  2C0F               	goto	l2980
  7454  0D77                     l714:
  7455  0D77  0008               	return
  7456  0D78                     __end_of___fldiv:
  7457                           
  7458                           	psect	text17
  7459  1336                     __ptext17:	
  7460 ;; *************** function _USART_SendString *****************
  7461 ;; Defined at:
  7462 ;;		line 37 in file "uart.c"
  7463 ;; Parameters:    Size  Location     Type
  7464 ;;  out             1    wreg     PTR const unsigned char 
  7465 ;;		 -> Temperatura(4), 
  7466 ;; Auto vars:     Size  Location     Type
  7467 ;;  out             1    2[COMMON] PTR const unsigned char 
  7468 ;;		 -> Temperatura(4), 
  7469 ;; Return value:  Size  Location     Type
  7470 ;;                  1    wreg      void 
  7471 ;; Registers used:
  7472 ;;		wreg, fsr0l, fsr0h, status,2, status,0, pclath, cstack
  7473 ;; Tracked objects:
  7474 ;;		On entry : 0/0
  7475 ;;		On exit  : 0/0
  7476 ;;		Unchanged: 0/0
  7477 ;; Data sizes:     COMMON   BANK0   BANK1   BANK3   BANK2
  7478 ;;      Params:         0       0       0       0       0
  7479 ;;      Locals:         1       0       0       0       0
  7480 ;;      Temps:          1       0       0       0       0
  7481 ;;      Totals:         2       0       0       0       0
  7482 ;;Total ram usage:        2 bytes
  7483 ;; Hardware stack levels used: 1
  7484 ;; Hardware stack levels required when called: 1
  7485 ;; This function calls:
  7486 ;;		_USART_TxChar
  7487 ;; This function is called by:
  7488 ;;		_main
  7489 ;; This function uses a non-reentrant model
  7490 ;;
  7491                           
  7492  1336                     _USART_SendString:	
  7493                           ;psect for function _USART_SendString
  7494                           
  7495                           
  7496                           ;incstack = 0
  7497                           ; Regs used in _USART_SendString: [wreg-fsr0h+status,2+status,0+pclath+cstack]
  7498                           ;USART_SendString@out stored from wreg
  7499  1336  00F2               	movwf	USART_SendString@out
  7500  1337                     l2888:
  7501                           
  7502                           ;uart.c: 37: void USART_SendString(const char *out);uart.c: 38: {;uart.c: 39:    while(*
      +                          out!='\0')
  7503  1337  2B44               	goto	l2894
  7504  1338                     l2890:
  7505                           
  7506                           ;uart.c: 40:    {;uart.c: 41:         USART_TxChar(*out);
  7507  1338  0872               	movf	USART_SendString@out,w
  7508  1339  0084               	movwf	4
  7509  133A  0800               	movf	0,w
  7510  133B  160A  118A  22F5  160A  118A  	fcall	_USART_TxChar
  7511  1340                     l2892:
  7512                           
  7513                           ;uart.c: 42:         out++;
  7514  1340  3001               	movlw	1
  7515  1341  00F1               	movwf	??_USART_SendString
  7516  1342  0871               	movf	??_USART_SendString,w
  7517  1343  07F2               	addwf	USART_SendString@out,f
  7518  1344                     l2894:
  7519                           
  7520                           ;uart.c: 39:    while(*out!='\0')
  7521  1344  0872               	movf	USART_SendString@out,w
  7522  1345  0084               	movwf	4
  7523  1346  1383               	bcf	3,7	;select IRP bank0
  7524  1347  0800               	movf	0,w
  7525  1348  1D03               	btfss	3,2
  7526  1349  2B4B               	goto	u3851
  7527  134A  2B4C               	goto	u3850
  7528  134B                     u3851:
  7529  134B  2B38               	goto	l2890
  7530  134C                     u3850:
  7531  134C                     l248:
  7532  134C  0008               	return
  7533  134D                     __end_of_USART_SendString:
  7534                           
  7535                           	psect	text18
  7536  12F5                     __ptext18:	
  7537 ;; *************** function _USART_TxChar *****************
  7538 ;; Defined at:
  7539 ;;		line 16 in file "uart.c"
  7540 ;; Parameters:    Size  Location     Type
  7541 ;;  out             1    wreg     unsigned char 
  7542 ;; Auto vars:     Size  Location     Type
  7543 ;;  out             1    0[COMMON] unsigned char 
  7544 ;; Return value:  Size  Location     Type
  7545 ;;                  1    wreg      void 
  7546 ;; Registers used:
  7547 ;;		wreg
  7548 ;; Tracked objects:
  7549 ;;		On entry : 0/0
  7550 ;;		On exit  : 0/0
  7551 ;;		Unchanged: 0/0
  7552 ;; Data sizes:     COMMON   BANK0   BANK1   BANK3   BANK2
  7553 ;;      Params:         0       0       0       0       0
  7554 ;;      Locals:         1       0       0       0       0
  7555 ;;      Temps:          0       0       0       0       0
  7556 ;;      Totals:         1       0       0       0       0
  7557 ;;Total ram usage:        1 bytes
  7558 ;; Hardware stack levels used: 1
  7559 ;; This function calls:
  7560 ;;		Nothing
  7561 ;; This function is called by:
  7562 ;;		_USART_SendString
  7563 ;; This function uses a non-reentrant model
  7564 ;;
  7565                           
  7566  12F5                     _USART_TxChar:	
  7567                           ;psect for function _USART_TxChar
  7568                           
  7569                           
  7570                           ;incstack = 0
  7571                           ; Regs used in _USART_TxChar: [wreg]
  7572                           ;USART_TxChar@out stored from wreg
  7573  12F5  00F0               	movwf	USART_TxChar@out
  7574  12F6                     l2534:
  7575  12F6                     l232:	
  7576                           ;uart.c: 16: void USART_TxChar(char out);uart.c: 17: {;uart.c: 18:         while(TXIF==0
      +                          );
  7577                           
  7578  12F6  1283               	bcf	3,5	;RP0=0, select bank0
  7579  12F7  1303               	bcf	3,6	;RP1=0, select bank0
  7580  12F8  1E0C               	btfss	12,4	;volatile
  7581  12F9  2AFB               	goto	u3191
  7582  12FA  2AFC               	goto	u3190
  7583  12FB                     u3191:
  7584  12FB  2AF6               	goto	l232
  7585  12FC                     u3190:
  7586  12FC                     l2536:
  7587                           
  7588                           ;uart.c: 19:         TXREG=out;
  7589  12FC  0870               	movf	USART_TxChar@out,w
  7590  12FD  0099               	movwf	25	;volatile
  7591  12FE                     l235:
  7592  12FE  0008               	return
  7593  12FF                     __end_of_USART_TxChar:
  7594                           
  7595                           	psect	text19
  7596  14FD                     __ptext19:	
  7597 ;; *************** function _USART_Init *****************
  7598 ;; Defined at:
  7599 ;;		line 5 in file "uart.c"
  7600 ;; Parameters:    Size  Location     Type
  7601 ;;  baud_rate       4    6[BANK0 ] long 
  7602 ;; Auto vars:     Size  Location     Type
  7603 ;;  temp            4    0        float 
  7604 ;; Return value:  Size  Location     Type
  7605 ;;                  1    wreg      void 
  7606 ;; Registers used:
  7607 ;;		wreg, status,2, status,0, pclath, cstack
  7608 ;; Tracked objects:
  7609 ;;		On entry : 0/0
  7610 ;;		On exit  : 0/0
  7611 ;;		Unchanged: 0/0
  7612 ;; Data sizes:     COMMON   BANK0   BANK1   BANK3   BANK2
  7613 ;;      Params:         0       4       0       0       0
  7614 ;;      Locals:         4       0       0       0       0
  7615 ;;      Temps:          0       0       0       0       0
  7616 ;;      Totals:         4       4       0       0       0
  7617 ;;Total ram usage:        8 bytes
  7618 ;; Hardware stack levels used: 1
  7619 ;; Hardware stack levels required when called: 1
  7620 ;; This function calls:
  7621 ;;		___aldiv
  7622 ;; This function is called by:
  7623 ;;		_main
  7624 ;; This function uses a non-reentrant model
  7625 ;;
  7626                           
  7627  14FD                     _USART_Init:	
  7628                           ;psect for function _USART_Init
  7629                           
  7630  14FD                     l2720:	
  7631                           ;incstack = 0
  7632                           ; Regs used in _USART_Init: [wreg+status,2+status,0+pclath+cstack]
  7633                           
  7634                           
  7635                           ;uart.c: 5: void USART_Init(long baud_rate);uart.c: 6: {;uart.c: 7:     float temp;;uart
      +                          .c: 8:     TRISC6=0;
  7636  14FD  1683               	bsf	3,5	;RP0=1, select bank1
  7637  14FE  1303               	bcf	3,6	;RP1=0, select bank1
  7638  14FF  1307               	bcf	7,6	;volatile
  7639                           
  7640                           ;uart.c: 9:     TRISC7=1;
  7641  1500  1787               	bsf	7,7	;volatile
  7642  1501                     l2722:
  7643                           
  7644                           ;uart.c: 10:     SPBRG=(unsigned char) (((8000000 / baud_rate) / 64) - 1);
  7645  1501  1283               	bcf	3,5	;RP0=0, select bank0
  7646  1502  1303               	bcf	3,6	;RP1=0, select bank0
  7647  1503  0829               	movf	USART_Init@baud_rate+3,w
  7648  1504  00F3               	movwf	___aldiv@divisor+3
  7649  1505  0828               	movf	USART_Init@baud_rate+2,w
  7650  1506  00F2               	movwf	___aldiv@divisor+2
  7651  1507  0827               	movf	USART_Init@baud_rate+1,w
  7652  1508  00F1               	movwf	___aldiv@divisor+1
  7653  1509  0826               	movf	USART_Init@baud_rate,w
  7654  150A  00F0               	movwf	___aldiv@divisor
  7655  150B  3000               	movlw	0
  7656  150C  00F7               	movwf	___aldiv@dividend+3
  7657  150D  307A               	movlw	122
  7658  150E  00F6               	movwf	___aldiv@dividend+2
  7659  150F  3012               	movlw	18
  7660  1510  00F5               	movwf	___aldiv@dividend+1
  7661  1511  3000               	movlw	0
  7662  1512  00F4               	movwf	___aldiv@dividend
  7663  1513  160A  118A  26A9  160A  118A  	fcall	___aldiv
  7664  1518  0873               	movf	?___aldiv+3,w
  7665  1519  00FC               	movwf	_USART_Init$1094+3
  7666  151A  0872               	movf	?___aldiv+2,w
  7667  151B  00FB               	movwf	_USART_Init$1094+2
  7668  151C  0871               	movf	?___aldiv+1,w
  7669  151D  00FA               	movwf	_USART_Init$1094+1
  7670  151E  0870               	movf	?___aldiv,w
  7671  151F  00F9               	movwf	_USART_Init$1094
  7672                           
  7673                           ;uart.c: 10:     SPBRG=(unsigned char) (((8000000 / baud_rate) / 64) - 1);
  7674  1520  3000               	movlw	0
  7675  1521  00F3               	movwf	___aldiv@divisor+3
  7676  1522  3000               	movlw	0
  7677  1523  00F2               	movwf	___aldiv@divisor+2
  7678  1524  3000               	movlw	0
  7679  1525  00F1               	movwf	___aldiv@divisor+1
  7680  1526  3040               	movlw	64
  7681  1527  00F0               	movwf	___aldiv@divisor
  7682  1528  087C               	movf	_USART_Init$1094+3,w
  7683  1529  00F7               	movwf	___aldiv@dividend+3
  7684  152A  087B               	movf	_USART_Init$1094+2,w
  7685  152B  00F6               	movwf	___aldiv@dividend+2
  7686  152C  087A               	movf	_USART_Init$1094+1,w
  7687  152D  00F5               	movwf	___aldiv@dividend+1
  7688  152E  0879               	movf	_USART_Init$1094,w
  7689  152F  00F4               	movwf	___aldiv@dividend
  7690  1530  160A  118A  26A9  160A  118A  	fcall	___aldiv
  7691  1535  0870               	movf	?___aldiv,w
  7692  1536  3EFF               	addlw	255
  7693  1537  1683               	bsf	3,5	;RP0=1, select bank1
  7694  1538  1303               	bcf	3,6	;RP1=0, select bank1
  7695  1539  0099               	movwf	25	;volatile
  7696  153A                     l2724:
  7697                           
  7698                           ;uart.c: 11:     TXSTA=0x20;
  7699  153A  3020               	movlw	32
  7700  153B  0098               	movwf	24	;volatile
  7701  153C                     l2726:
  7702                           
  7703                           ;uart.c: 12:     RCSTA=0x90;
  7704  153C  3090               	movlw	144
  7705  153D  1283               	bcf	3,5	;RP0=0, select bank0
  7706  153E  1303               	bcf	3,6	;RP1=0, select bank0
  7707  153F  0098               	movwf	24	;volatile
  7708  1540                     l229:
  7709  1540  0008               	return
  7710  1541                     __end_of_USART_Init:
  7711                           
  7712                           	psect	text20
  7713  16A9                     __ptext20:	
  7714 ;; *************** function ___aldiv *****************
  7715 ;; Defined at:
  7716 ;;		line 5 in file "C:\Program Files\Microchip\xc8\v2.36\pic\sources\c90\common\aldiv.c"
  7717 ;; Parameters:    Size  Location     Type
  7718 ;;  divisor         4    0[COMMON] long 
  7719 ;;  dividend        4    4[COMMON] long 
  7720 ;; Auto vars:     Size  Location     Type
  7721 ;;  quotient        4    2[BANK0 ] long 
  7722 ;;  sign            1    1[BANK0 ] unsigned char 
  7723 ;;  counter         1    0[BANK0 ] unsigned char 
  7724 ;; Return value:  Size  Location     Type
  7725 ;;                  4    0[COMMON] long 
  7726 ;; Registers used:
  7727 ;;		wreg, status,2, status,0
  7728 ;; Tracked objects:
  7729 ;;		On entry : 0/0
  7730 ;;		On exit  : 0/0
  7731 ;;		Unchanged: 0/0
  7732 ;; Data sizes:     COMMON   BANK0   BANK1   BANK3   BANK2
  7733 ;;      Params:         8       0       0       0       0
  7734 ;;      Locals:         0       6       0       0       0
  7735 ;;      Temps:          1       0       0       0       0
  7736 ;;      Totals:         9       6       0       0       0
  7737 ;;Total ram usage:       15 bytes
  7738 ;; Hardware stack levels used: 1
  7739 ;; This function calls:
  7740 ;;		Nothing
  7741 ;; This function is called by:
  7742 ;;		_USART_Init
  7743 ;; This function uses a non-reentrant model
  7744 ;;
  7745                           
  7746  16A9                     ___aldiv:	
  7747                           ;psect for function ___aldiv
  7748                           
  7749  16A9                     l2538:	
  7750                           ;incstack = 0
  7751                           ; Regs used in ___aldiv: [wreg+status,2+status,0]
  7752                           
  7753  16A9  1283               	bcf	3,5	;RP0=0, select bank0
  7754  16AA  1303               	bcf	3,6	;RP1=0, select bank0
  7755  16AB  01A1               	clrf	___aldiv@sign
  7756  16AC                     l2540:
  7757  16AC  1FF3               	btfss	___aldiv@divisor+3,7
  7758  16AD  2EAF               	goto	u3201
  7759  16AE  2EB0               	goto	u3200
  7760  16AF                     u3201:
  7761  16AF  2EBD               	goto	l428
  7762  16B0                     u3200:
  7763  16B0                     l2542:
  7764  16B0  09F0               	comf	___aldiv@divisor,f
  7765  16B1  09F1               	comf	___aldiv@divisor+1,f
  7766  16B2  09F2               	comf	___aldiv@divisor+2,f
  7767  16B3  09F3               	comf	___aldiv@divisor+3,f
  7768  16B4  0AF0               	incf	___aldiv@divisor,f
  7769  16B5  1903               	skipnz
  7770  16B6  0AF1               	incf	___aldiv@divisor+1,f
  7771  16B7  1903               	skipnz
  7772  16B8  0AF2               	incf	___aldiv@divisor+2,f
  7773  16B9  1903               	skipnz
  7774  16BA  0AF3               	incf	___aldiv@divisor+3,f
  7775  16BB  01A1               	clrf	___aldiv@sign
  7776  16BC  0AA1               	incf	___aldiv@sign,f
  7777  16BD                     l428:
  7778  16BD  1FF7               	btfss	___aldiv@dividend+3,7
  7779  16BE  2EC0               	goto	u3211
  7780  16BF  2EC1               	goto	u3210
  7781  16C0                     u3211:
  7782  16C0  2ED0               	goto	l2548
  7783  16C1                     u3210:
  7784  16C1                     l2544:
  7785  16C1  09F4               	comf	___aldiv@dividend,f
  7786  16C2  09F5               	comf	___aldiv@dividend+1,f
  7787  16C3  09F6               	comf	___aldiv@dividend+2,f
  7788  16C4  09F7               	comf	___aldiv@dividend+3,f
  7789  16C5  0AF4               	incf	___aldiv@dividend,f
  7790  16C6  1903               	skipnz
  7791  16C7  0AF5               	incf	___aldiv@dividend+1,f
  7792  16C8  1903               	skipnz
  7793  16C9  0AF6               	incf	___aldiv@dividend+2,f
  7794  16CA  1903               	skipnz
  7795  16CB  0AF7               	incf	___aldiv@dividend+3,f
  7796  16CC                     l2546:
  7797  16CC  3001               	movlw	1
  7798  16CD  00F8               	movwf	??___aldiv
  7799  16CE  0878               	movf	??___aldiv,w
  7800  16CF  06A1               	xorwf	___aldiv@sign,f
  7801  16D0                     l2548:
  7802  16D0  3000               	movlw	0
  7803  16D1  00A5               	movwf	___aldiv@quotient+3
  7804  16D2  3000               	movlw	0
  7805  16D3  00A4               	movwf	___aldiv@quotient+2
  7806  16D4  3000               	movlw	0
  7807  16D5  00A3               	movwf	___aldiv@quotient+1
  7808  16D6  3000               	movlw	0
  7809  16D7  00A2               	movwf	___aldiv@quotient
  7810  16D8                     l2550:
  7811  16D8  0873               	movf	___aldiv@divisor+3,w
  7812  16D9  0472               	iorwf	___aldiv@divisor+2,w
  7813  16DA  0471               	iorwf	___aldiv@divisor+1,w
  7814  16DB  0470               	iorwf	___aldiv@divisor,w
  7815  16DC  1903               	skipnz
  7816  16DD  2EDF               	goto	u3221
  7817  16DE  2EE0               	goto	u3220
  7818  16DF                     u3221:
  7819  16DF  2F2D               	goto	l2570
  7820  16E0                     u3220:
  7821  16E0                     l2552:
  7822  16E0  01A0               	clrf	___aldiv@counter
  7823  16E1  0AA0               	incf	___aldiv@counter,f
  7824  16E2  2EF0               	goto	l2556
  7825  16E3                     l2554:
  7826  16E3  3001               	movlw	1
  7827  16E4  00F8               	movwf	??___aldiv
  7828  16E5                     u3235:
  7829  16E5  1003               	clrc
  7830  16E6  0DF0               	rlf	___aldiv@divisor,f
  7831  16E7  0DF1               	rlf	___aldiv@divisor+1,f
  7832  16E8  0DF2               	rlf	___aldiv@divisor+2,f
  7833  16E9  0DF3               	rlf	___aldiv@divisor+3,f
  7834  16EA  0BF8               	decfsz	??___aldiv,f
  7835  16EB  2EE5               	goto	u3235
  7836  16EC  3001               	movlw	1
  7837  16ED  00F8               	movwf	??___aldiv
  7838  16EE  0878               	movf	??___aldiv,w
  7839  16EF  07A0               	addwf	___aldiv@counter,f
  7840  16F0                     l2556:
  7841  16F0  1FF3               	btfss	___aldiv@divisor+3,7
  7842  16F1  2EF3               	goto	u3241
  7843  16F2  2EF4               	goto	u3240
  7844  16F3                     u3241:
  7845  16F3  2EE3               	goto	l2554
  7846  16F4                     u3240:
  7847  16F4                     l2558:
  7848  16F4  3001               	movlw	1
  7849  16F5  00F8               	movwf	??___aldiv
  7850  16F6                     u3255:
  7851  16F6  1003               	clrc
  7852  16F7  0DA2               	rlf	___aldiv@quotient,f
  7853  16F8  0DA3               	rlf	___aldiv@quotient+1,f
  7854  16F9  0DA4               	rlf	___aldiv@quotient+2,f
  7855  16FA  0DA5               	rlf	___aldiv@quotient+3,f
  7856  16FB  0BF8               	decfsz	??___aldiv,f
  7857  16FC  2EF6               	goto	u3255
  7858  16FD                     l2560:
  7859  16FD  0873               	movf	___aldiv@divisor+3,w
  7860  16FE  0277               	subwf	___aldiv@dividend+3,w
  7861  16FF  1D03               	skipz
  7862  1700  2F0B               	goto	u3265
  7863  1701  0872               	movf	___aldiv@divisor+2,w
  7864  1702  0276               	subwf	___aldiv@dividend+2,w
  7865  1703  1D03               	skipz
  7866  1704  2F0B               	goto	u3265
  7867  1705  0871               	movf	___aldiv@divisor+1,w
  7868  1706  0275               	subwf	___aldiv@dividend+1,w
  7869  1707  1D03               	skipz
  7870  1708  2F0B               	goto	u3265
  7871  1709  0870               	movf	___aldiv@divisor,w
  7872  170A  0274               	subwf	___aldiv@dividend,w
  7873  170B                     u3265:
  7874  170B  1C03               	skipc
  7875  170C  2F0E               	goto	u3261
  7876  170D  2F0F               	goto	u3260
  7877  170E                     u3261:
  7878  170E  2F1E               	goto	l2566
  7879  170F                     u3260:
  7880  170F                     l2562:
  7881  170F  0870               	movf	___aldiv@divisor,w
  7882  1710  02F4               	subwf	___aldiv@dividend,f
  7883  1711  0871               	movf	___aldiv@divisor+1,w
  7884  1712  1C03               	skipc
  7885  1713  0F71               	incfsz	___aldiv@divisor+1,w
  7886  1714  02F5               	subwf	___aldiv@dividend+1,f
  7887  1715  0872               	movf	___aldiv@divisor+2,w
  7888  1716  1C03               	skipc
  7889  1717  0F72               	incfsz	___aldiv@divisor+2,w
  7890  1718  02F6               	subwf	___aldiv@dividend+2,f
  7891  1719  0873               	movf	___aldiv@divisor+3,w
  7892  171A  1C03               	skipc
  7893  171B  0F73               	incfsz	___aldiv@divisor+3,w
  7894  171C  02F7               	subwf	___aldiv@dividend+3,f
  7895  171D                     l2564:
  7896  171D  1422               	bsf	___aldiv@quotient,0
  7897  171E                     l2566:
  7898  171E  3001               	movlw	1
  7899  171F                     u3275:
  7900  171F  1003               	clrc
  7901  1720  0CF3               	rrf	___aldiv@divisor+3,f
  7902  1721  0CF2               	rrf	___aldiv@divisor+2,f
  7903  1722  0CF1               	rrf	___aldiv@divisor+1,f
  7904  1723  0CF0               	rrf	___aldiv@divisor,f
  7905  1724  3EFF               	addlw	-1
  7906  1725  1D03               	skipz
  7907  1726  2F1F               	goto	u3275
  7908  1727                     l2568:
  7909  1727  3001               	movlw	1
  7910  1728  02A0               	subwf	___aldiv@counter,f
  7911  1729  1D03               	btfss	3,2
  7912  172A  2F2C               	goto	u3281
  7913  172B  2F2D               	goto	u3280
  7914  172C                     u3281:
  7915  172C  2EF4               	goto	l2558
  7916  172D                     u3280:
  7917  172D                     l2570:
  7918  172D  0821               	movf	___aldiv@sign,w
  7919  172E  1903               	btfsc	3,2
  7920  172F  2F31               	goto	u3291
  7921  1730  2F32               	goto	u3290
  7922  1731                     u3291:
  7923  1731  2F3D               	goto	l2574
  7924  1732                     u3290:
  7925  1732                     l2572:
  7926  1732  09A2               	comf	___aldiv@quotient,f
  7927  1733  09A3               	comf	___aldiv@quotient+1,f
  7928  1734  09A4               	comf	___aldiv@quotient+2,f
  7929  1735  09A5               	comf	___aldiv@quotient+3,f
  7930  1736  0AA2               	incf	___aldiv@quotient,f
  7931  1737  1903               	skipnz
  7932  1738  0AA3               	incf	___aldiv@quotient+1,f
  7933  1739  1903               	skipnz
  7934  173A  0AA4               	incf	___aldiv@quotient+2,f
  7935  173B  1903               	skipnz
  7936  173C  0AA5               	incf	___aldiv@quotient+3,f
  7937  173D                     l2574:
  7938  173D  0825               	movf	___aldiv@quotient+3,w
  7939  173E  00F3               	movwf	?___aldiv+3
  7940  173F  0824               	movf	___aldiv@quotient+2,w
  7941  1740  00F2               	movwf	?___aldiv+2
  7942  1741  0823               	movf	___aldiv@quotient+1,w
  7943  1742  00F1               	movwf	?___aldiv+1
  7944  1743  0822               	movf	___aldiv@quotient,w
  7945  1744  00F0               	movwf	?___aldiv
  7946  1745                     l438:
  7947  1745  0008               	return
  7948  1746                     __end_of___aldiv:
  7949                           
  7950                           	psect	text21
  7951  136E                     __ptext21:	
  7952 ;; *************** function _LCD_String_xy *****************
  7953 ;; Defined at:
  7954 ;;		line 116 in file "LCD.c"
  7955 ;; Parameters:    Size  Location     Type
  7956 ;;  row             1    wreg     unsigned char 
  7957 ;;  pos             1    5[COMMON] unsigned char 
  7958 ;;  msg             1    6[COMMON] PTR const unsigned char 
  7959 ;;		 -> Fila2(16), Fila1(16), 
  7960 ;; Auto vars:     Size  Location     Type
  7961 ;;  row             1    8[COMMON] unsigned char 
  7962 ;;  location        1    9[COMMON] unsigned char 
  7963 ;; Return value:  Size  Location     Type
  7964 ;;                  1    wreg      void 
  7965 ;; Registers used:
  7966 ;;		wreg, fsr0l, fsr0h, status,2, status,0, pclath, cstack
  7967 ;; Tracked objects:
  7968 ;;		On entry : 0/0
  7969 ;;		On exit  : 0/0
  7970 ;;		Unchanged: 0/0
  7971 ;; Data sizes:     COMMON   BANK0   BANK1   BANK3   BANK2
  7972 ;;      Params:         2       0       0       0       0
  7973 ;;      Locals:         2       0       0       0       0
  7974 ;;      Temps:          1       0       0       0       0
  7975 ;;      Totals:         5       0       0       0       0
  7976 ;;Total ram usage:        5 bytes
  7977 ;; Hardware stack levels used: 1
  7978 ;; Hardware stack levels required when called: 2
  7979 ;; This function calls:
  7980 ;;		_LCD_Command
  7981 ;;		_LCD_String
  7982 ;; This function is called by:
  7983 ;;		_main
  7984 ;; This function uses a non-reentrant model
  7985 ;;
  7986                           
  7987  136E                     _LCD_String_xy:	
  7988                           ;psect for function _LCD_String_xy
  7989                           
  7990                           
  7991                           ;incstack = 0
  7992                           ; Regs used in _LCD_String_xy: [wreg-fsr0h+status,2+status,0+pclath+cstack]
  7993                           ;LCD_String_xy@row stored from wreg
  7994  136E  00F8               	movwf	LCD_String_xy@row
  7995  136F                     l2874:
  7996  136F                     l2876:
  7997                           
  7998                           ;LCD.c: 119:     if(row<=1)
  7999  136F  3002               	movlw	2
  8000  1370  0278               	subwf	LCD_String_xy@row,w
  8001  1371  1803               	skipnc
  8002  1372  2B74               	goto	u3841
  8003  1373  2B75               	goto	u3840
  8004  1374                     u3841:
  8005  1374  2B82               	goto	l2882
  8006  1375                     u3840:
  8007  1375                     l2878:
  8008                           
  8009                           ;LCD.c: 120:     {;LCD.c: 121:         location=(0x80) | ((pos) & 0x0f);
  8010  1375  0875               	movf	LCD_String_xy@pos,w
  8011  1376  390F               	andlw	15
  8012  1377  3880               	iorlw	128
  8013  1378  00F7               	movwf	??_LCD_String_xy
  8014  1379  0877               	movf	??_LCD_String_xy,w
  8015  137A  00F9               	movwf	LCD_String_xy@location
  8016  137B                     l2880:
  8017                           
  8018                           ;LCD.c: 122:         LCD_Command(location);
  8019  137B  0879               	movf	LCD_String_xy@location,w
  8020  137C  160A  118A  241A  160A  118A  	fcall	_LCD_Command
  8021                           
  8022                           ;LCD.c: 123:     }
  8023  1381  2B8E               	goto	l2886
  8024  1382                     l2882:
  8025                           
  8026                           ;LCD.c: 125:     {;LCD.c: 126:         location=(0xC0) | ((pos) & 0x0f);
  8027  1382  0875               	movf	LCD_String_xy@pos,w
  8028  1383  390F               	andlw	15
  8029  1384  38C0               	iorlw	192
  8030  1385  00F7               	movwf	??_LCD_String_xy
  8031  1386  0877               	movf	??_LCD_String_xy,w
  8032  1387  00F9               	movwf	LCD_String_xy@location
  8033  1388                     l2884:
  8034                           
  8035                           ;LCD.c: 127:         LCD_Command(location);
  8036  1388  0879               	movf	LCD_String_xy@location,w
  8037  1389  160A  118A  241A  160A  118A  	fcall	_LCD_Command
  8038  138E                     l2886:
  8039                           
  8040                           ;LCD.c: 131:     LCD_String(msg);
  8041  138E  0876               	movf	LCD_String_xy@msg,w
  8042  138F  160A  118A  231F  160A  118A  	fcall	_LCD_String
  8043  1394                     l98:
  8044  1394  0008               	return
  8045  1395                     __end_of_LCD_String_xy:
  8046                           
  8047                           	psect	text22
  8048  131F                     __ptext22:	
  8049 ;; *************** function _LCD_String *****************
  8050 ;; Defined at:
  8051 ;;		line 106 in file "LCD.c"
  8052 ;; Parameters:    Size  Location     Type
  8053 ;;  msg             1    wreg     PTR const unsigned char 
  8054 ;;		 -> Fila2(16), Fila1(16), 
  8055 ;; Auto vars:     Size  Location     Type
  8056 ;;  msg             1    4[COMMON] PTR const unsigned char 
  8057 ;;		 -> Fila2(16), Fila1(16), 
  8058 ;; Return value:  Size  Location     Type
  8059 ;;                  1    wreg      void 
  8060 ;; Registers used:
  8061 ;;		wreg, fsr0l, fsr0h, status,2, status,0, pclath, cstack
  8062 ;; Tracked objects:
  8063 ;;		On entry : 0/0
  8064 ;;		On exit  : 0/0
  8065 ;;		Unchanged: 0/0
  8066 ;; Data sizes:     COMMON   BANK0   BANK1   BANK3   BANK2
  8067 ;;      Params:         0       0       0       0       0
  8068 ;;      Locals:         1       0       0       0       0
  8069 ;;      Temps:          1       0       0       0       0
  8070 ;;      Totals:         2       0       0       0       0
  8071 ;;Total ram usage:        2 bytes
  8072 ;; Hardware stack levels used: 1
  8073 ;; Hardware stack levels required when called: 1
  8074 ;; This function calls:
  8075 ;;		_LCD_Char
  8076 ;; This function is called by:
  8077 ;;		_LCD_String_xy
  8078 ;; This function uses a non-reentrant model
  8079 ;;
  8080                           
  8081  131F                     _LCD_String:	
  8082                           ;psect for function _LCD_String
  8083                           
  8084                           
  8085                           ;incstack = 0
  8086                           ; Regs used in _LCD_String: [wreg-fsr0h+status,2+status,0+pclath+cstack]
  8087                           ;LCD_String@msg stored from wreg
  8088  131F  00F4               	movwf	LCD_String@msg
  8089  1320                     l2526:
  8090                           
  8091                           ;LCD.c: 106: void LCD_String(const char *msg);LCD.c: 107: {;LCD.c: 108:  while((*msg)!=0
      +                          )
  8092  1320  2B2D               	goto	l2532
  8093  1321                     l2528:
  8094                           
  8095                           ;LCD.c: 109:  {;LCD.c: 110:    LCD_Char(*msg);
  8096  1321  0874               	movf	LCD_String@msg,w
  8097  1322  0084               	movwf	4
  8098  1323  0800               	movf	0,w
  8099  1324  160A  118A  2450  160A  118A  	fcall	_LCD_Char
  8100  1329                     l2530:
  8101                           
  8102                           ;LCD.c: 111:    msg++;
  8103  1329  3001               	movlw	1
  8104  132A  00F3               	movwf	??_LCD_String
  8105  132B  0873               	movf	??_LCD_String,w
  8106  132C  07F4               	addwf	LCD_String@msg,f
  8107  132D                     l2532:
  8108                           
  8109                           ;LCD.c: 108:  while((*msg)!=0)
  8110  132D  0874               	movf	LCD_String@msg,w
  8111  132E  0084               	movwf	4
  8112  132F  1783               	bsf	3,7	;select IRP bank2
  8113  1330  0800               	movf	0,w
  8114  1331  1D03               	btfss	3,2
  8115  1332  2B34               	goto	u3181
  8116  1333  2B35               	goto	u3180
  8117  1334                     u3181:
  8118  1334  2B21               	goto	l2528
  8119  1335                     u3180:
  8120  1335                     l93:
  8121  1335  0008               	return
  8122  1336                     __end_of_LCD_String:
  8123                           
  8124                           	psect	text23
  8125  1450                     __ptext23:	
  8126 ;; *************** function _LCD_Char *****************
  8127 ;; Defined at:
  8128 ;;		line 91 in file "LCD.c"
  8129 ;; Parameters:    Size  Location     Type
  8130 ;;  dat             1    wreg     unsigned char 
  8131 ;; Auto vars:     Size  Location     Type
  8132 ;;  dat             1    2[COMMON] unsigned char 
  8133 ;; Return value:  Size  Location     Type
  8134 ;;                  1    wreg      void 
  8135 ;; Registers used:
  8136 ;;		wreg, status,2, status,0
  8137 ;; Tracked objects:
  8138 ;;		On entry : 0/0
  8139 ;;		On exit  : 0/0
  8140 ;;		Unchanged: 0/0
  8141 ;; Data sizes:     COMMON   BANK0   BANK1   BANK3   BANK2
  8142 ;;      Params:         0       0       0       0       0
  8143 ;;      Locals:         1       0       0       0       0
  8144 ;;      Temps:          2       0       0       0       0
  8145 ;;      Totals:         3       0       0       0       0
  8146 ;;Total ram usage:        3 bytes
  8147 ;; Hardware stack levels used: 1
  8148 ;; This function calls:
  8149 ;;		Nothing
  8150 ;; This function is called by:
  8151 ;;		_LCD_String
  8152 ;; This function uses a non-reentrant model
  8153 ;;
  8154                           
  8155  1450                     _LCD_Char:	
  8156                           ;psect for function _LCD_Char
  8157                           
  8158                           
  8159                           ;incstack = 0
  8160                           ; Regs used in _LCD_Char: [wreg+status,2+status,0]
  8161                           ;LCD_Char@dat stored from wreg
  8162  1450  00F2               	movwf	LCD_Char@dat
  8163  1451                     l2140:
  8164                           
  8165                           ;LCD.c: 91: void LCD_Char(unsigned char dat);LCD.c: 92: {;LCD.c: 93:  PORTD = (PORTD & 0
      +                          x0f) | (0xF0 & dat);
  8166  1451  30F0               	movlw	240
  8167  1452  0572               	andwf	LCD_Char@dat,w
  8168  1453  00F0               	movwf	??_LCD_Char
  8169  1454  1283               	bcf	3,5	;RP0=0, select bank0
  8170  1455  1303               	bcf	3,6	;RP1=0, select bank0
  8171  1456  0808               	movf	8,w	;volatile
  8172  1457  390F               	andlw	15
  8173  1458  0470               	iorwf	??_LCD_Char,w
  8174  1459  0088               	movwf	8	;volatile
  8175  145A                     l2142:
  8176                           
  8177                           ;LCD.c: 94:  PORTDbits.RD2 = 1;
  8178  145A  1508               	bsf	8,2	;volatile
  8179  145B                     l2144:
  8180                           
  8181                           ;LCD.c: 95:  PORTDbits.RD3 = 1;
  8182  145B  1588               	bsf	8,3	;volatile
  8183  145C                     l2146:
  8184                           
  8185                           ;LCD.c: 96:  __nop();
  8186  145C  0000               	nop
  8187  145D                     l2148:
  8188                           
  8189                           ;LCD.c: 97:  PORTDbits.RD3 = 0;
  8190  145D  1283               	bcf	3,5	;RP0=0, select bank0
  8191  145E  1303               	bcf	3,6	;RP1=0, select bank0
  8192  145F  1188               	bcf	8,3	;volatile
  8193  1460                     l2150:
  8194                           
  8195                           ;LCD.c: 98:  _delay((unsigned long)((1)*(8000000/4000.0)));
  8196  1460  3003               	movlw	3
  8197  1461  00F1               	movwf	??_LCD_Char+1
  8198  1462  3097               	movlw	151
  8199  1463  00F0               	movwf	??_LCD_Char
  8200  1464                     u4597:
  8201  1464  0BF0               	decfsz	??_LCD_Char,f
  8202  1465  2C64               	goto	u4597
  8203  1466  0BF1               	decfsz	??_LCD_Char+1,f
  8204  1467  2C64               	goto	u4597
  8205  1468  2C69               	nop2
  8206  1469                     l2152:
  8207                           
  8208                           ;LCD.c: 99:     PORTD = (unsigned char)((PORTD & 0x0f) | (dat<<4));
  8209  1469  0872               	movf	LCD_Char@dat,w
  8210  146A  00F0               	movwf	??_LCD_Char
  8211  146B  3004               	movlw	4
  8212  146C                     u2305:
  8213  146C  1003               	clrc
  8214  146D  0DF0               	rlf	??_LCD_Char,f
  8215  146E  3EFF               	addlw	-1
  8216  146F  1D03               	skipz
  8217  1470  2C6C               	goto	u2305
  8218  1471  1283               	bcf	3,5	;RP0=0, select bank0
  8219  1472  1303               	bcf	3,6	;RP1=0, select bank0
  8220  1473  0808               	movf	8,w	;volatile
  8221  1474  390F               	andlw	15
  8222  1475  0470               	iorwf	??_LCD_Char,w
  8223  1476  0088               	movwf	8	;volatile
  8224  1477                     l2154:
  8225                           
  8226                           ;LCD.c: 100:  PORTDbits.RD3 = 1;
  8227  1477  1588               	bsf	8,3	;volatile
  8228  1478                     l2156:
  8229                           
  8230                           ;LCD.c: 101:  __nop();
  8231  1478  0000               	nop
  8232  1479                     l2158:
  8233                           
  8234                           ;LCD.c: 102:  PORTDbits.RD3 = 0;
  8235  1479  1283               	bcf	3,5	;RP0=0, select bank0
  8236  147A  1303               	bcf	3,6	;RP1=0, select bank0
  8237  147B  1188               	bcf	8,3	;volatile
  8238                           
  8239                           ;LCD.c: 103:  _delay((unsigned long)((3)*(8000000/4000.0)));
  8240  147C  3008               	movlw	8
  8241  147D  00F1               	movwf	??_LCD_Char+1
  8242  147E  30C9               	movlw	201
  8243  147F  00F0               	movwf	??_LCD_Char
  8244  1480                     u4607:
  8245  1480  0BF0               	decfsz	??_LCD_Char,f
  8246  1481  2C80               	goto	u4607
  8247  1482  0BF1               	decfsz	??_LCD_Char+1,f
  8248  1483  2C80               	goto	u4607
  8249  1484  2C85               	nop2
  8250  1485                     l87:
  8251  1485  0008               	return
  8252  1486                     __end_of_LCD_Char:
  8253                           
  8254                           	psect	text24
  8255  13BC                     __ptext24:	
  8256 ;; *************** function _LCD_Init *****************
  8257 ;; Defined at:
  8258 ;;		line 38 in file "LCD.c"
  8259 ;; Parameters:    Size  Location     Type
  8260 ;;		None
  8261 ;; Auto vars:     Size  Location     Type
  8262 ;;		None
  8263 ;; Return value:  Size  Location     Type
  8264 ;;                  1    wreg      void 
  8265 ;; Registers used:
  8266 ;;		wreg, status,2, status,0, pclath, cstack
  8267 ;; Tracked objects:
  8268 ;;		On entry : 0/0
  8269 ;;		On exit  : 0/0
  8270 ;;		Unchanged: 0/0
  8271 ;; Data sizes:     COMMON   BANK0   BANK1   BANK3   BANK2
  8272 ;;      Params:         0       0       0       0       0
  8273 ;;      Locals:         0       0       0       0       0
  8274 ;;      Temps:          2       0       0       0       0
  8275 ;;      Totals:         2       0       0       0       0
  8276 ;;Total ram usage:        2 bytes
  8277 ;; Hardware stack levels used: 1
  8278 ;; Hardware stack levels required when called: 1
  8279 ;; This function calls:
  8280 ;;		_LCD_Command
  8281 ;; This function is called by:
  8282 ;;		_main
  8283 ;; This function uses a non-reentrant model
  8284 ;;
  8285                           
  8286  13BC                     _LCD_Init:	
  8287                           ;psect for function _LCD_Init
  8288                           
  8289  13BC                     l2728:	
  8290                           ;incstack = 0
  8291                           ; Regs used in _LCD_Init: [wreg+status,2+status,0+pclath+cstack]
  8292                           
  8293                           
  8294                           ;LCD.c: 40:     TRISD = 0;
  8295  13BC  1683               	bsf	3,5	;RP0=1, select bank1
  8296  13BD  1303               	bcf	3,6	;RP1=0, select bank1
  8297  13BE  0188               	clrf	8	;volatile
  8298  13BF                     l2730:
  8299                           
  8300                           ;LCD.c: 41:     _delay((unsigned long)((15)*(8000000/4000.0)));
  8301  13BF  3027               	movlw	39
  8302  13C0  00F4               	movwf	??_LCD_Init+1
  8303  13C1  30F5               	movlw	245
  8304  13C2  00F3               	movwf	??_LCD_Init
  8305  13C3                     u4617:
  8306  13C3  0BF3               	decfsz	??_LCD_Init,f
  8307  13C4  2BC3               	goto	u4617
  8308  13C5  0BF4               	decfsz	??_LCD_Init+1,f
  8309  13C6  2BC3               	goto	u4617
  8310  13C7                     l2732:
  8311                           
  8312                           ;LCD.c: 42:     LCD_Command(0x02);
  8313  13C7  3002               	movlw	2
  8314  13C8  160A  118A  241A  160A  118A  	fcall	_LCD_Command
  8315  13CD                     l2734:
  8316                           
  8317                           ;LCD.c: 43:     LCD_Command(0x28);
  8318  13CD  3028               	movlw	40
  8319  13CE  160A  118A  241A  160A  118A  	fcall	_LCD_Command
  8320  13D3                     l2736:
  8321                           
  8322                           ;LCD.c: 44:     LCD_Command(0x01);
  8323  13D3  3001               	movlw	1
  8324  13D4  160A  118A  241A  160A  118A  	fcall	_LCD_Command
  8325  13D9                     l2738:
  8326                           
  8327                           ;LCD.c: 45:     LCD_Command(0x0c);
  8328  13D9  300C               	movlw	12
  8329  13DA  160A  118A  241A  160A  118A  	fcall	_LCD_Command
  8330  13DF                     l2740:
  8331                           
  8332                           ;LCD.c: 46:     LCD_Command(0x06);
  8333  13DF  3006               	movlw	6
  8334  13E0  160A  118A  241A  160A  118A  	fcall	_LCD_Command
  8335  13E5                     l81:
  8336  13E5  0008               	return
  8337  13E6                     __end_of_LCD_Init:
  8338                           
  8339                           	psect	text25
  8340  12FF                     __ptext25:	
  8341 ;; *************** function _LCD_Clear *****************
  8342 ;; Defined at:
  8343 ;;		line 147 in file "LCD.c"
  8344 ;; Parameters:    Size  Location     Type
  8345 ;;		None
  8346 ;; Auto vars:     Size  Location     Type
  8347 ;;		None
  8348 ;; Return value:  Size  Location     Type
  8349 ;;                  1    wreg      void 
  8350 ;; Registers used:
  8351 ;;		wreg, status,2, status,0, pclath, cstack
  8352 ;; Tracked objects:
  8353 ;;		On entry : 0/0
  8354 ;;		On exit  : 0/0
  8355 ;;		Unchanged: 0/0
  8356 ;; Data sizes:     COMMON   BANK0   BANK1   BANK3   BANK2
  8357 ;;      Params:         0       0       0       0       0
  8358 ;;      Locals:         0       0       0       0       0
  8359 ;;      Temps:          2       0       0       0       0
  8360 ;;      Totals:         2       0       0       0       0
  8361 ;;Total ram usage:        2 bytes
  8362 ;; Hardware stack levels used: 1
  8363 ;; Hardware stack levels required when called: 1
  8364 ;; This function calls:
  8365 ;;		_LCD_Command
  8366 ;; This function is called by:
  8367 ;;		_main
  8368 ;; This function uses a non-reentrant model
  8369 ;;
  8370                           
  8371  12FF                     _LCD_Clear:	
  8372                           ;psect for function _LCD_Clear
  8373                           
  8374  12FF                     l2896:	
  8375                           ;incstack = 0
  8376                           ; Regs used in _LCD_Clear: [wreg+status,2+status,0+pclath+cstack]
  8377                           
  8378                           
  8379                           ;LCD.c: 149:     LCD_Command(0x01);
  8380  12FF  3001               	movlw	1
  8381  1300  160A  118A  241A  160A  118A  	fcall	_LCD_Command
  8382  1305                     l2898:
  8383                           
  8384                           ;LCD.c: 150:     _delay((unsigned long)((3)*(8000000/4000.0)));
  8385  1305  3008               	movlw	8
  8386  1306  00F4               	movwf	??_LCD_Clear+1
  8387  1307  30C9               	movlw	201
  8388  1308  00F3               	movwf	??_LCD_Clear
  8389  1309                     u4627:
  8390  1309  0BF3               	decfsz	??_LCD_Clear,f
  8391  130A  2B09               	goto	u4627
  8392  130B  0BF4               	decfsz	??_LCD_Clear+1,f
  8393  130C  2B09               	goto	u4627
  8394  130D  2B0E               	nop2
  8395  130E                     l101:
  8396  130E  0008               	return
  8397  130F                     __end_of_LCD_Clear:
  8398                           
  8399                           	psect	text26
  8400  141A                     __ptext26:	
  8401 ;; *************** function _LCD_Command *****************
  8402 ;; Defined at:
  8403 ;;		line 62 in file "LCD.c"
  8404 ;; Parameters:    Size  Location     Type
  8405 ;;  cmd             1    wreg     unsigned char 
  8406 ;; Auto vars:     Size  Location     Type
  8407 ;;  cmd             1    2[COMMON] unsigned char 
  8408 ;; Return value:  Size  Location     Type
  8409 ;;                  1    wreg      void 
  8410 ;; Registers used:
  8411 ;;		wreg, status,2, status,0
  8412 ;; Tracked objects:
  8413 ;;		On entry : 0/0
  8414 ;;		On exit  : 0/0
  8415 ;;		Unchanged: 0/0
  8416 ;; Data sizes:     COMMON   BANK0   BANK1   BANK3   BANK2
  8417 ;;      Params:         0       0       0       0       0
  8418 ;;      Locals:         1       0       0       0       0
  8419 ;;      Temps:          2       0       0       0       0
  8420 ;;      Totals:         3       0       0       0       0
  8421 ;;Total ram usage:        3 bytes
  8422 ;; Hardware stack levels used: 1
  8423 ;; This function calls:
  8424 ;;		Nothing
  8425 ;; This function is called by:
  8426 ;;		_main
  8427 ;;		_LCD_Init
  8428 ;;		_LCD_String_xy
  8429 ;;		_LCD_Clear
  8430 ;; This function uses a non-reentrant model
  8431 ;;
  8432                           
  8433  141A                     _LCD_Command:	
  8434                           ;psect for function _LCD_Command
  8435                           
  8436                           
  8437                           ;incstack = 0
  8438                           ; Regs used in _LCD_Command: [wreg+status,2+status,0]
  8439                           ;LCD_Command@cmd stored from wreg
  8440  141A  00F2               	movwf	LCD_Command@cmd
  8441  141B                     l2506:
  8442                           
  8443                           ;LCD.c: 62: void LCD_Command(unsigned char cmd );LCD.c: 63: {;LCD.c: 64:  PORTD = (PORTD
      +                           & 0x0f) |(0xF0 & cmd);
  8444  141B  30F0               	movlw	240
  8445  141C  0572               	andwf	LCD_Command@cmd,w
  8446  141D  00F0               	movwf	??_LCD_Command
  8447  141E  1283               	bcf	3,5	;RP0=0, select bank0
  8448  141F  1303               	bcf	3,6	;RP1=0, select bank0
  8449  1420  0808               	movf	8,w	;volatile
  8450  1421  390F               	andlw	15
  8451  1422  0470               	iorwf	??_LCD_Command,w
  8452  1423  0088               	movwf	8	;volatile
  8453  1424                     l2508:
  8454                           
  8455                           ;LCD.c: 65:  PORTDbits.RD2 = 0;
  8456  1424  1108               	bcf	8,2	;volatile
  8457  1425                     l2510:
  8458                           
  8459                           ;LCD.c: 66:  PORTDbits.RD3 = 1;
  8460  1425  1588               	bsf	8,3	;volatile
  8461  1426                     l2512:
  8462                           
  8463                           ;LCD.c: 67:  __nop();
  8464  1426  0000               	nop
  8465  1427                     l2514:
  8466                           
  8467                           ;LCD.c: 68:  PORTDbits.RD3 = 0;
  8468  1427  1283               	bcf	3,5	;RP0=0, select bank0
  8469  1428  1303               	bcf	3,6	;RP1=0, select bank0
  8470  1429  1188               	bcf	8,3	;volatile
  8471  142A                     l2516:
  8472                           
  8473                           ;LCD.c: 69:  _delay((unsigned long)((1)*(8000000/4000.0)));
  8474  142A  3003               	movlw	3
  8475  142B  00F1               	movwf	??_LCD_Command+1
  8476  142C  3097               	movlw	151
  8477  142D  00F0               	movwf	??_LCD_Command
  8478  142E                     u4637:
  8479  142E  0BF0               	decfsz	??_LCD_Command,f
  8480  142F  2C2E               	goto	u4637
  8481  1430  0BF1               	decfsz	??_LCD_Command+1,f
  8482  1431  2C2E               	goto	u4637
  8483  1432  2C33               	nop2
  8484  1433                     l2518:
  8485                           
  8486                           ;LCD.c: 70:     PORTD = (unsigned char)((PORTD & 0x0f) | (cmd<<4));
  8487  1433  0872               	movf	LCD_Command@cmd,w
  8488  1434  00F0               	movwf	??_LCD_Command
  8489  1435  3004               	movlw	4
  8490  1436                     u3175:
  8491  1436  1003               	clrc
  8492  1437  0DF0               	rlf	??_LCD_Command,f
  8493  1438  3EFF               	addlw	-1
  8494  1439  1D03               	skipz
  8495  143A  2C36               	goto	u3175
  8496  143B  1283               	bcf	3,5	;RP0=0, select bank0
  8497  143C  1303               	bcf	3,6	;RP1=0, select bank0
  8498  143D  0808               	movf	8,w	;volatile
  8499  143E  390F               	andlw	15
  8500  143F  0470               	iorwf	??_LCD_Command,w
  8501  1440  0088               	movwf	8	;volatile
  8502  1441                     l2520:
  8503                           
  8504                           ;LCD.c: 71:  PORTDbits.RD3 = 1;
  8505  1441  1588               	bsf	8,3	;volatile
  8506  1442                     l2522:
  8507                           
  8508                           ;LCD.c: 72:  __nop();
  8509  1442  0000               	nop
  8510  1443                     l2524:
  8511                           
  8512                           ;LCD.c: 73:  PORTDbits.RD3 = 0;
  8513  1443  1283               	bcf	3,5	;RP0=0, select bank0
  8514  1444  1303               	bcf	3,6	;RP1=0, select bank0
  8515  1445  1188               	bcf	8,3	;volatile
  8516                           
  8517                           ;LCD.c: 74:  _delay((unsigned long)((3)*(8000000/4000.0)));
  8518  1446  3008               	movlw	8
  8519  1447  00F1               	movwf	??_LCD_Command+1
  8520  1448  30C9               	movlw	201
  8521  1449  00F0               	movwf	??_LCD_Command
  8522  144A                     u4647:
  8523  144A  0BF0               	decfsz	??_LCD_Command,f
  8524  144B  2C4A               	goto	u4647
  8525  144C  0BF1               	decfsz	??_LCD_Command+1,f
  8526  144D  2C4A               	goto	u4647
  8527  144E  2C4F               	nop2
  8528  144F                     l84:
  8529  144F  0008               	return
  8530  1450                     __end_of_LCD_Command:
  8531                           
  8532                           	psect	text27
  8533  14C0                     __ptext27:	
  8534 ;; *************** function _ADC_Read *****************
  8535 ;; Defined at:
  8536 ;;		line 21 in file "adc.c"
  8537 ;; Parameters:    Size  Location     Type
  8538 ;;  channel         2    0[COMMON] int 
  8539 ;; Auto vars:     Size  Location     Type
  8540 ;;  digital         2    5[COMMON] int 
  8541 ;; Return value:  Size  Location     Type
  8542 ;;                  2    0[COMMON] int 
  8543 ;; Registers used:
  8544 ;;		wreg, status,2, status,0
  8545 ;; Tracked objects:
  8546 ;;		On entry : 0/0
  8547 ;;		On exit  : 0/0
  8548 ;;		Unchanged: 0/0
  8549 ;; Data sizes:     COMMON   BANK0   BANK1   BANK3   BANK2
  8550 ;;      Params:         2       0       0       0       0
  8551 ;;      Locals:         2       0       0       0       0
  8552 ;;      Temps:          3       0       0       0       0
  8553 ;;      Totals:         7       0       0       0       0
  8554 ;;Total ram usage:        7 bytes
  8555 ;; Hardware stack levels used: 1
  8556 ;; This function calls:
  8557 ;;		Nothing
  8558 ;; This function is called by:
  8559 ;;		_main
  8560 ;; This function uses a non-reentrant model
  8561 ;;
  8562                           
  8563  14C0                     _ADC_Read:	
  8564                           ;psect for function _ADC_Read
  8565                           
  8566  14C0                     l2760:	
  8567                           ;incstack = 0
  8568                           ; Regs used in _ADC_Read: [wreg+status,2+status,0]
  8569                           
  8570                           
  8571                           ;adc.c: 21: int ADC_Read(int channel);adc.c: 22: {;adc.c: 23:     int digital;;adc.c: 26
      +                          :     ADCON0 =(ADCON0 & 0b11000011)|((channel<<2) & 0b00111100);
  8572  14C0  0870               	movf	ADC_Read@channel,w
  8573  14C1  00F2               	movwf	??_ADC_Read
  8574  14C2  3002               	movlw	2
  8575  14C3                     u3685:
  8576  14C3  1003               	clrc
  8577  14C4  0DF2               	rlf	??_ADC_Read,f
  8578  14C5  3EFF               	addlw	-1
  8579  14C6  1D03               	skipz
  8580  14C7  2CC3               	goto	u3685
  8581  14C8  303C               	movlw	60
  8582  14C9  0572               	andwf	??_ADC_Read,w
  8583  14CA  00F3               	movwf	??_ADC_Read+1
  8584  14CB  1283               	bcf	3,5	;RP0=0, select bank0
  8585  14CC  1303               	bcf	3,6	;RP1=0, select bank0
  8586  14CD  081F               	movf	31,w	;volatile
  8587  14CE  39C3               	andlw	195
  8588  14CF  0473               	iorwf	??_ADC_Read+1,w
  8589  14D0  009F               	movwf	31	;volatile
  8590                           
  8591                           ;adc.c: 28:     ADCON0 |= ((1<<ADON)|(1<<GO));
  8592  14D1  3001               	movlw	1
  8593  14D2  00F2               	movwf	??_ADC_Read
  8594  14D3  3000               	movlw	0
  8595  14D4  189F               	btfsc	31,1	;volatile
  8596  14D5  3001               	movlw	1
  8597  14D6  3E01               	addlw	1
  8598  14D7  2CDA               	goto	u3694
  8599  14D8                     u3695:
  8600  14D8  1003               	clrc
  8601  14D9  0DF2               	rlf	??_ADC_Read,f
  8602  14DA                     u3694:
  8603  14DA  3EFF               	addlw	-1
  8604  14DB  1D03               	skipz
  8605  14DC  2CD8               	goto	u3695
  8606  14DD  3001               	movlw	1
  8607  14DE  00F3               	movwf	??_ADC_Read+1
  8608  14DF  3000               	movlw	0
  8609  14E0  181F               	btfsc	31,0	;volatile
  8610  14E1  3001               	movlw	1
  8611  14E2  3E01               	addlw	1
  8612  14E3  2CE6               	goto	u3704
  8613  14E4                     u3705:
  8614  14E4  1003               	clrc
  8615  14E5  0DF3               	rlf	??_ADC_Read+1,f
  8616  14E6                     u3704:
  8617  14E6  3EFF               	addlw	-1
  8618  14E7  1D03               	skipz
  8619  14E8  2CE4               	goto	u3705
  8620  14E9  0873               	movf	??_ADC_Read+1,w
  8621  14EA  0472               	iorwf	??_ADC_Read,w
  8622  14EB  00F4               	movwf	??_ADC_Read+2
  8623  14EC  0874               	movf	??_ADC_Read+2,w
  8624  14ED  049F               	iorwf	31,f	;volatile
  8625  14EE                     l199:	
  8626                           ;adc.c: 31:     while(ADCON0bits.GO_nDONE==1);
  8627                           
  8628  14EE  189F               	btfsc	31,1	;volatile
  8629  14EF  2CF1               	goto	u3711
  8630  14F0  2CF2               	goto	u3710
  8631  14F1                     u3711:
  8632  14F1  2CEE               	goto	l199
  8633  14F2                     u3710:
  8634  14F2                     l2762:
  8635                           
  8636                           ;adc.c: 33:     digital = (ADRESH << 8) + ADRESL;
  8637  14F2  081E               	movf	30,w	;volatile
  8638  14F3  00F6               	movwf	ADC_Read@digital+1
  8639  14F4  1683               	bsf	3,5	;RP0=1, select bank1
  8640  14F5  1303               	bcf	3,6	;RP1=0, select bank1
  8641  14F6  081E               	movf	30,w	;volatile
  8642  14F7  00F5               	movwf	ADC_Read@digital
  8643                           
  8644                           ;adc.c: 34:     return(digital);
  8645  14F8  0876               	movf	ADC_Read@digital+1,w
  8646  14F9  00F1               	movwf	?_ADC_Read+1
  8647  14FA  0875               	movf	ADC_Read@digital,w
  8648  14FB  00F0               	movwf	?_ADC_Read
  8649  14FC                     l202:
  8650  14FC  0008               	return
  8651  14FD                     __end_of_ADC_Read:
  8652                           
  8653                           	psect	text28
  8654  0003                     __ptext28:	
  8655 ;; *************** function _ADC_Init *****************
  8656 ;; Defined at:
  8657 ;;		line 5 in file "adc.c"
  8658 ;; Parameters:    Size  Location     Type
  8659 ;;		None
  8660 ;; Auto vars:     Size  Location     Type
  8661 ;;		None
  8662 ;; Return value:  Size  Location     Type
  8663 ;;                  1    wreg      void 
  8664 ;; Registers used:
  8665 ;;		wreg, status,2
  8666 ;; Tracked objects:
  8667 ;;		On entry : 0/0
  8668 ;;		On exit  : 0/0
  8669 ;;		Unchanged: 0/0
  8670 ;; Data sizes:     COMMON   BANK0   BANK1   BANK3   BANK2
  8671 ;;      Params:         0       0       0       0       0
  8672 ;;      Locals:         0       0       0       0       0
  8673 ;;      Temps:          0       0       0       0       0
  8674 ;;      Totals:         0       0       0       0       0
  8675 ;;Total ram usage:        0 bytes
  8676 ;; Hardware stack levels used: 1
  8677 ;; This function calls:
  8678 ;;		Nothing
  8679 ;; This function is called by:
  8680 ;;		_main
  8681 ;; This function uses a non-reentrant model
  8682 ;;
  8683                           
  8684  0003                     _ADC_Init:	
  8685                           ;psect for function _ADC_Init
  8686                           
  8687  0003                     l2742:	
  8688                           ;incstack = 0
  8689                           ; Regs used in _ADC_Init: [wreg+status,2]
  8690                           
  8691                           
  8692                           ;adc.c: 7:     TRISA0 = 1;
  8693  0003  1683               	bsf	3,5	;RP0=1, select bank1
  8694  0004  1303               	bcf	3,6	;RP1=0, select bank1
  8695  0005  1405               	bsf	5,0	;volatile
  8696  0006                     l2744:
  8697                           
  8698                           ;adc.c: 8:     ANSEL = 0x07;
  8699  0006  3007               	movlw	7
  8700  0007  1683               	bsf	3,5	;RP0=1, select bank3
  8701  0008  1703               	bsf	3,6	;RP1=1, select bank3
  8702  0009  0088               	movwf	8	;volatile
  8703  000A                     l2746:
  8704                           
  8705                           ;adc.c: 9:     TRISA1= 1;
  8706  000A  1683               	bsf	3,5	;RP0=1, select bank1
  8707  000B  1303               	bcf	3,6	;RP1=0, select bank1
  8708  000C  1485               	bsf	5,1	;volatile
  8709  000D                     l2748:
  8710                           
  8711                           ;adc.c: 10:     TRISA2= 1;
  8712  000D  1505               	bsf	5,2	;volatile
  8713  000E                     l2750:
  8714                           
  8715                           ;adc.c: 14:     ADCON1bits.ADFM = 1;
  8716  000E  179F               	bsf	31,7	;volatile
  8717  000F                     l2752:
  8718                           
  8719                           ;adc.c: 15:     ADCON1bits.VCFG0 = 0;
  8720  000F  121F               	bcf	31,4	;volatile
  8721  0010                     l2754:
  8722                           
  8723                           ;adc.c: 16:     ADCON1bits.VCFG1 = 0;
  8724  0010  129F               	bcf	31,5	;volatile
  8725  0011                     l2756:
  8726                           
  8727                           ;adc.c: 17:     ADRESH=0;
  8728  0011  1283               	bcf	3,5	;RP0=0, select bank0
  8729  0012  1303               	bcf	3,6	;RP1=0, select bank0
  8730  0013  019E               	clrf	30	;volatile
  8731  0014                     l2758:
  8732                           
  8733                           ;adc.c: 18:     ADRESL=0;
  8734  0014  1683               	bsf	3,5	;RP0=1, select bank1
  8735  0015  1303               	bcf	3,6	;RP1=0, select bank1
  8736  0016  019E               	clrf	30	;volatile
  8737  0017                     l196:
  8738  0017  0008               	return
  8739  0018                     __end_of_ADC_Init:
  8740  007E                     btemp	set	126	;btemp
  8741  007E                     wtemp0	set	126
  8742                           
  8743                           	psect	config
  8744                           
  8745                           ;Config register CONFIG1 @ 0x2007
  8746                           ;	Oscillator Selection bits
  8747                           ;	FOSC = INTRC_CLKOUT, INTOSC oscillator: CLKOUT function on RA6/OSC2/CLKOUT pin, I/O fu
      +                          nction on RA7/OSC1/CLKIN
  8748                           ;	Watchdog Timer Enable bit
  8749                           ;	WDTE = OFF, WDT disabled and can be enabled by SWDTEN bit of the WDTCON register
  8750                           ;	Power-up Timer Enable bit
  8751                           ;	PWRTE = OFF, PWRT disabled
  8752                           ;	RE3/MCLR pin function select bit
  8753                           ;	MCLRE = OFF, RE3/MCLR pin function is digital input, MCLR internally tied to VDD
  8754                           ;	Code Protection bit
  8755                           ;	CP = OFF, Program memory code protection is disabled
  8756                           ;	Data Code Protection bit
  8757                           ;	CPD = OFF, Data memory code protection is disabled
  8758                           ;	Brown Out Reset Selection bits
  8759                           ;	BOREN = OFF, BOR disabled
  8760                           ;	Internal External Switchover bit
  8761                           ;	IESO = OFF, Internal/External Switchover mode is disabled
  8762                           ;	Fail-Safe Clock Monitor Enabled bit
  8763                           ;	FCMEN = OFF, Fail-Safe Clock Monitor is disabled
  8764                           ;	Low Voltage Programming Enable bit
  8765                           ;	LVP = OFF, RB3 pin has digital I/O, HV on MCLR must be used for programming
  8766                           ;	In-Circuit Debugger Mode bit
  8767                           ;	DEBUG = 0x1, unprogrammed default
  8768  2007                     	org	8199
  8769  2007  20D5               	dw	8405
  8770                           
  8771                           ;Config register CONFIG2 @ 0x2008
  8772                           ;	Brown-out Reset Selection bit
  8773                           ;	BOR4V = BOR40V, Brown-out Reset set to 4.0V
  8774                           ;	Flash Program Memory Self Write Enable bits
  8775                           ;	WRT = OFF, Write protection off
  8776  2008                     	org	8200
  8777  2008  3FFF               	dw	16383

Data Sizes:
    Strings     32
    Constant    46
    Data        16
    BSS         56
    Persistent  0
    Stack       0

Auto Spaces:
    Space          Size  Autos    Used
    COMMON           14     14      14
    BANK0            80     78      79
    BANK1            80     45      68
    BANK3            96      0      48
    BANK2            96      0       0

Pointer List with Targets:

    strcpy@from	PTR const unsigned char  size(1) Largest target is 4
		 -> STR_5(CODE[4]), STR_1(CODE[4]), 

    strcpy@to	PTR unsigned char  size(1) Largest target is 16
		 -> Fila2(BANK3[16]), Fila1(BANK3[16]), 

    strcpy@cp	PTR unsigned char  size(1) Largest target is 16
		 -> Fila2(BANK3[16]), Fila1(BANK3[16]), 

    strcat@from	PTR const unsigned char  size(2) Largest target is 4
		 -> Luz(BANK1[1]), Humedad(BANK1[4]), STR_3(CODE[4]), Temperatura(BANK1[4]), 

    strcat@to	PTR unsigned char  size(1) Largest target is 16
		 -> Fila2(BANK3[16]), Fila1(BANK3[16]), 

    strcat@cp	PTR unsigned char  size(1) Largest target is 16
		 -> Fila2(BANK3[16]), Fila1(BANK3[16]), 

    frexp@eptr	PTR int  size(1) Largest target is 2
		 -> log@exponent(BANK1[2]), 

    eval_poly@d	PTR const  size(1) Largest target is 36
		 -> log@coeff(CODE[36]), 

    sprintf@f	PTR const unsigned char  size(1) Largest target is 8
		 -> STR_6(CODE[5]), STR_4(CODE[7]), STR_2(CODE[8]), 

    sprintf@sp	PTR unsigned char  size(1) Largest target is 4
		 -> Luz(BANK1[1]), Humedad(BANK1[4]), Temperatura(BANK1[4]), 

    sprintf@ap	PTR void [1] size(1) Largest target is 2
		 -> ?_sprintf(BANK0[2]), 

    USART_SendString@out	PTR const unsigned char  size(1) Largest target is 4
		 -> Temperatura(BANK1[4]), 

    LCD_String_xy@msg	PTR const unsigned char  size(1) Largest target is 16
		 -> Fila2(BANK3[16]), Fila1(BANK3[16]), 

    LCD_String@msg	PTR const unsigned char  size(1) Largest target is 16
		 -> Fila2(BANK3[16]), Fila1(BANK3[16]), 

    sp__strcat	PTR unsigned char  size(1) Largest target is 16
		 -> Fila2(BANK3[16]), Fila1(BANK3[16]), 

    sp__strcpy	PTR unsigned char  size(1) Largest target is 16
		 -> Fila2(BANK3[16]), Fila1(BANK3[16]), 


Critical Paths under _main in COMMON

    _main->___xxtofl
    _sprintf->___lwmod
    ___lwmod->___lwdiv
    _log->___xxtofl
    _log->_frexp
    _frexp->___fleq
    ___flmul->___xxtofl
    ___flmul->_frexp
    ___fladd->___xxtofl
    ___fladd->_frexp
    ___fldiv->___xxtofl
    ___fldiv->_frexp
    _USART_SendString->_USART_TxChar
    _USART_Init->___aldiv
    _LCD_String_xy->_LCD_String
    _LCD_String->_LCD_Char
    _LCD_Init->_LCD_Command
    _LCD_Clear->_LCD_Command

Critical Paths under _main in BANK0

    _main->_log
    _log->___fladd
    _eval_poly->___fladd
    ___flmul->_frexp
    ___fladd->___fldiv
    ___fldiv->___flmul
    _USART_Init->___aldiv

Critical Paths under _main in BANK1

    _main->_log
    _log->_eval_poly

Critical Paths under _main in BANK3

    None.

Critical Paths under _main in BANK2

    None.

Call Graph Tables:

 ---------------------------------------------------------------------------------
 (Depth) Function   	        Calls       Base Space   Used Autos Params    Refs
 ---------------------------------------------------------------------------------
 (0) _main                                                23    23      0   30202
                                             22 BANK1     23    23      0
                           _ADC_Init
                           _ADC_Read
                          _LCD_Clear
                        _LCD_Command
                           _LCD_Init
                      _LCD_String_xy
                         _USART_Init
                   _USART_SendString
                            ___fladd
                            ___fldiv
                             ___flge
                            ___flmul
                            ___fltol
                           ___xxtofl
                                _log
                            _sprintf
                             _strcat
                             _strcpy
 ---------------------------------------------------------------------------------
 (2) _strcpy                                               4     3      1     293
                                              0 COMMON     4     3      1
 ---------------------------------------------------------------------------------
 (2) _strcat                                               5     3      2     534
                                              0 COMMON     5     3      2
 ---------------------------------------------------------------------------------
 (1) _sprintf                                             23    18      5    1498
                                              0 BANK0     15    10      5
                            ___fltol (ARG)
                            ___lwdiv
                            ___lwmod
 ---------------------------------------------------------------------------------
 (2) ___lwmod                                              6     2      4     311
                                              8 COMMON     6     2      4
                            ___lwdiv (ARG)
 ---------------------------------------------------------------------------------
 (2) ___lwdiv                                              8     4      4     314
                                              0 COMMON     8     4      4
 ---------------------------------------------------------------------------------
 (1) _log                                                  7     3      4   16090
                                             77 BANK0      1     1      0
                                             16 BANK1      6     2      4
                            ___fladd
                            ___fldiv (ARG)
                             ___fleq
                             ___flge
                            ___flmul
                           ___xxtofl
                          _eval_poly
                              _frexp
 ---------------------------------------------------------------------------------
 (2) _frexp                                                7     2      5     896
                                             12 COMMON     2     2      0
                                              0 BANK0      5     0      5
                             ___fleq
 ---------------------------------------------------------------------------------
 (3) ___fleq                                              12     4      8     520
                                              0 COMMON    12     4      8
 ---------------------------------------------------------------------------------
 (2) _eval_poly                                           16     9      7    6579
                                              0 BANK1     16     9      7
                            ___fladd
                            ___fldiv (ARG)
                            ___flmul
 ---------------------------------------------------------------------------------
 (3) ___flmul                                             26    18      8    2999
                                              5 BANK0     26    18      8
                          __Umul8_16
                           ___xxtofl (ARG)
                              _frexp (ARG)
 ---------------------------------------------------------------------------------
 (4) __Umul8_16                                            9     7      2     799
                                              0 COMMON     9     7      2
 ---------------------------------------------------------------------------------
 (3) ___fladd                                             20    12      8    3174
                                             57 BANK0     20    12      8
                            ___fldiv (ARG)
                            ___flmul (ARG)
                           ___xxtofl (ARG)
                              _frexp (ARG)
 ---------------------------------------------------------------------------------
 (2) ___xxtofl                                            14    10      4     550
                                              0 COMMON    14    10      4
 ---------------------------------------------------------------------------------
 (2) ___flge                                              12     4      8    1068
                                              0 COMMON    12     4      8
 ---------------------------------------------------------------------------------
 (1) ___fltol                                             11     7      4     381
                                              0 COMMON    11     7      4
 ---------------------------------------------------------------------------------
 (1) ___fldiv                                             26    18      8    1577
                                             31 BANK0     26    18      8
                          __Umul8_16 (ARG)
                             ___fleq (ARG)
                             ___flge (ARG)
                            ___flmul (ARG)
                           ___xxtofl (ARG)
                              _frexp (ARG)
 ---------------------------------------------------------------------------------
 (1) _USART_SendString                                     2     2      0     100
                                              1 COMMON     2     2      0
                       _USART_TxChar
 ---------------------------------------------------------------------------------
 (2) _USART_TxChar                                         1     1      0      22
                                              0 COMMON     1     1      0
 ---------------------------------------------------------------------------------
 (1) _USART_Init                                          12     8      4     725
                                              9 COMMON     4     4      0
                                              6 BANK0      4     0      4
                            ___aldiv
 ---------------------------------------------------------------------------------
 (2) ___aldiv                                             15     7      8     604
                                              0 COMMON     9     1      8
                                              0 BANK0      6     6      0
 ---------------------------------------------------------------------------------
 (1) _LCD_String_xy                                        5     3      2     605
                                              5 COMMON     5     3      2
                        _LCD_Command
                         _LCD_String
 ---------------------------------------------------------------------------------
 (2) _LCD_String                                           2     2      0     122
                                              3 COMMON     2     2      0
                           _LCD_Char
 ---------------------------------------------------------------------------------
 (3) _LCD_Char                                             3     3      0      44
                                              0 COMMON     3     3      0
 ---------------------------------------------------------------------------------
 (1) _LCD_Init                                             2     2      0      44
                                              3 COMMON     2     2      0
                        _LCD_Command
 ---------------------------------------------------------------------------------
 (1) _LCD_Clear                                            2     2      0      44
                                              3 COMMON     2     2      0
                        _LCD_Command
 ---------------------------------------------------------------------------------
 (2) _LCD_Command                                          3     3      0      44
                                              0 COMMON     3     3      0
 ---------------------------------------------------------------------------------
 (1) _ADC_Read                                             7     5      2     273
                                              0 COMMON     7     5      2
 ---------------------------------------------------------------------------------
 (1) _ADC_Init                                             0     0      0       0
 ---------------------------------------------------------------------------------
 Estimated maximum stack depth 4
 ---------------------------------------------------------------------------------

 Call Graph Graphs:

 _main (ROOT)
   _ADC_Init
   _ADC_Read
   _LCD_Clear
     _LCD_Command
   _LCD_Command
   _LCD_Init
     _LCD_Command
   _LCD_String_xy
     _LCD_Command
     _LCD_String
       _LCD_Char
   _USART_Init
     ___aldiv
   _USART_SendString
     _USART_TxChar
   ___fladd
     ___fldiv (ARG)
       __Umul8_16 (ARG)
       ___fleq (ARG)
       ___flge (ARG)
       ___flmul (ARG)
         __Umul8_16
         ___xxtofl (ARG)
         _frexp (ARG)
           ___fleq
       ___xxtofl (ARG)
       _frexp (ARG)
     ___flmul (ARG)
     ___xxtofl (ARG)
     _frexp (ARG)
   ___fldiv
   ___flge
   ___flmul
   ___fltol
   ___xxtofl
   _log
     ___fladd
     ___fldiv (ARG)
     ___fleq (ARG)
     ___flge (ARG)
     ___flmul (ARG)
     ___xxtofl (ARG)
     _eval_poly (ARG)
       ___fladd
       ___fldiv (ARG)
       ___flmul (ARG)
     _frexp (ARG)
   _sprintf
     ___fltol (ARG)
     ___lwdiv (ARG)
     ___lwmod (ARG)
       ___lwdiv (ARG)
   _strcat
   _strcpy

 Address spaces:
Name               Size   Autos  Total    Cost      Usage
BANK3               60      0      30       9       50.0%
BITBANK3            60      0       0       8        0.0%
SFR3                 0      0       0       4        0.0%
BITSFR3              0      0       0       4        0.0%
BANK2               60      0       0      11        0.0%
BITBANK2            60      0       0      10        0.0%
SFR2                 0      0       0       5        0.0%
BITSFR2              0      0       0       5        0.0%
BANK1               50     2D      44       7       85.0%
BITBANK1            50      0       0       6        0.0%
SFR1                 0      0       0       2        0.0%
BITSFR1              0      0       0       2        0.0%
BANK0               50     4E      4F       5       98.8%
BITBANK0            50      0       0       4        0.0%
SFR0                 0      0       0       1        0.0%
BITSFR0              0      0       0       1        0.0%
COMMON               E      E       E       1      100.0%
BITCOMMON            E      0       0       0        0.0%
CODE                 0      0       0       0        0.0%
DATA                 0      0      D1      12        0.0%
ABS                  0      0      D1       3        0.0%
NULL                 0      0       0       0        0.0%
STACK                0      0       0       2        0.0%
EEDATA             100      0       0       0        0.0%


Microchip Technology PIC Macro Assembler V2.36 build 20220127204148 
Symbol Table                                                                                   Fri Feb 03 14:04:40 2023

            ___fldiv@aexp 0058              ___fldiv@bexp 0057                         pc 0002  
            ___fldiv@sign 0050              ?_LCD_Command 0070                        l62 07BF  
                      l81 13E5                        l84 144F                        l93 1335  
                      l87 1485                        _GO 00F9                        l98 1394  
                      fsr 0004               ?_LCD_String 0070       __Umul8_16@word_mpld 0076  
                     l101 130E                       l202 14FC                       l232 12F6  
                     l235 12FE                       l229 1540                       l248 134C  
                     l196 0017                       l428 16BD                       l540 00A0  
                     l532 15A1                       l541 00B9                       l533 15BD  
                     l438 1745                       l534 15D2                       l199 14EE  
                     l359 0A4E                       l712 0BF7                       l537 0034  
                     l714 0D77                       l810 17D5                       l802 17AD  
                     l635 1584                       l556 1693                       l660 0E82  
                     l549 16A8                       l645 14BF                       l734 0D5B  
                     l662 0E59                       l559 16A8                       l823 0B9A  
                     l736 0D6B                       l728 0CE9                       l656 0DDB  
                     l752 041A                       l809 17C9                       l681 0F71  
                     l841 162E                       l690 0FD1                       l771 13A9  
                     l835 094B                       l764 040E                       l860 1419  
                     l677 0F4D                       l669 0FFF                       l773 13BB  
                     l758 0386                       l687 0F93                       l698 0FF3  
                     l866 136D                       l699 0FFF                       l796 1768  
                     l798 17FF                       _Luz 00E3                       _idx 006E  
                     _log 0A4F                       fsr0 0004                       indf 0000  
            ___flmul@aexp 0037              ___flmul@bexp 0038              ___flmul@sign 0032  
            ___flmul@temp 003D              ___flmul@prod 0039               LCD_Char@dat 0072  
            ___fltol@exp1 007A                      l3000 0C52                      l2200 0DB9  
                    l3002 0C57                      l3010 0C77                      l2210 0DD0  
                    l2202 0DBD                      l2130 139F                      l2140 1451  
                    l3020 0CA2                      l3012 0C89                      l3004 0C69  
                    l2300 0F2B                      l2220 0DE9                      l2212 0DD1  
                    l2204 0DBE                      l2132 13A3                      l3100 048E  
                    l2150 1460                      l2142 145A                      l3030 0CBA  
                    l3022 0CAA                      l3014 0C8A                      l3006 0C6D  
                    l2302 0F30                      l2230 0DFD                      l2222 0DED  
                    l2206 0DC3                      l2214 0DD3                      l2134 13B2  
                    l2126 1396                      l3110 0564                      l3102 049C  
                    l2152 1469                      l2144 145B                      l3040 0CD2  
                    l3032 0CC3                      l3024 0CAC                      l3016 0C98  
                    l3008 0C6E                      l2320 0F78                      l2312 0F63  
                    l2304 0F3F                      l2240 0E11                      l2232 0E01  
                    l2224 0DF1                      l2216 0DE1                      l2208 0DC8  
                    l2136 13B7                      l2128 1398                      l2400 010C  
                    l2160 1585                      l3120 0682                      l3112 05BA  
                    l3104 04B0                      l2154 1477                      l2146 145C  
                    l3050 0D01                      l3042 0CE6                      l3026 0CB5  
                    l3034 0CC9                      l3018 0C9C                      l2330 0F86  
                    l2322 0F7A                      l2314 0F6C                      l2306 0F55  
                    l2242 0E15                      l2234 0E05                      l2226 0DF5  
                    l2218 0DE5                      l2250 0E25                      l2410 0127  
                    l2402 0114                      l2162 1599                      l3130 06D5  
                    l3122 068C                      l3114 05F9                      l3106 04BE  
                    l2156 1478                      l2148 145D                      l3060 0D3F  
                    l3052 0D05                      l3036 0CCD                      l3028 0CB9  
                    l2340 0F9D                      l2332 0F8A                      l2324 0F7F  
                    l2316 0F70                      l2308 0F5A                      l2260 0E68  
                    l2252 0E26                      l2244 0E19                      l2236 0E09  
                    l2228 0DF9                      l2180 0D8A                      l2172 0D78  
                    l2500 0407                      l2420 01A9                      l2412 0137  
                    l2404 0119                      l2164 15B5                      l3140 0720  
                    l3132 06E3                      l3124 069A                      l3116 0651  
                    l3108 0516                      l2510 1425                      l2158 1479  
                    l3070 0D65                      l3062 0D4E                      l3054 0D1E  
                    l3046 0CEE                      l3038 0CCE                      l2350 0FDB  
                    l2342 0FAB                      l2334 0F90                      l2318 0F75  
                    l2326 0F81                      l2270 0E86                      l2262 0E6C  
                    l2254 0E3D                      l2246 0E1D                      l2238 0E0D  
                    l2182 0D8F                      l2190 0D9F                      l2174 0D7F  
                    l2502 0412                      l2430 0217                      l2422 01C5  
                    l2414 0144                      l2406 011E                      l2166 15CF  
                    l3150 0762                      l3142 072E                      l3134 06F0  
                    l3126 06A4                      l3118 065B                      l2520 1441  
                    l2512 1426                      l3072 0D67                      l3064 0D52  
                    l3048 0CF3                      l3056 0D24                      l2360 0FEF  
                    l2352 0FE3                      l2344 0FAF                      l2280 0EAF  
                    l2328 0F85                      l2272 0E8B                      l2264 0E6D  
                    l2256 0E5D                      l2248 0E21                      l2192 0DA7  
                    l2184 0D94                      l2176 0D85                      l2440 02A7  
                    l2432 0227                      l2424 01E1                      l2416 0161  
                    l2168 15D1                      l2600 1543                      l3152 077D  
                    l3160 07C4                      l3144 073B                      l3136 06FC  
                    l3128 06CB                      l3080 041F                      l2522 1442  
                    l2514 1427                      l2506 141B                      l2530 1329  
                    l3066 0D5A                      l3058 0D31                      l2362 0FFA  
                    l2354 0FE8                      l2346 0FCD                      l2338 0F98  
                    l2290 0EC3                      l2282 0EB3                      l2266 0E76  
                    l2258 0E66                      l2194 0DAC                      l2186 0D9C  
                    l2178 0D89                      l2450 033B                      l2442 02B7  
                    l2434 0244                      l2426 01EA                      l2418 017D  
                    l2370 00C7                      l2610 155B                      l2602 1549  
                    l3162 07D3                      l3154 0798                      l3146 0741  
                    l3138 0716                      l3090 043D                      l3082 0420  
                    l2524 1443                      l2516 142A                      l2508 1424  
                    l2532 132D                      l2540 16AC                      l3068 0D61  
                    l2364 0FFE                      l2356 0FE9                      l2348 0FD6  
                    l2292 0ECC                      l2284 0EBC                      l2276 0E94  
                    l2268 0E7A                      l2196 0DB2                      l2188 0D9D  
                    l2460 0360                      l2452 0349                      l2444 02E4  
                    l2436 025D                      l2428 01FA                      l2380 00DE  
                    l2372 00CB                      l2700 161C                      l2612 156C  
                    l2604 154C                      l2620 1580                      l3156 079E  
                    l3148 075C                      l3092 044B                      l3084 0424  
                    l2518 1433                      l2526 1320                      l2550 16D8  
                    l2542 16B0                      l2534 12F6                      l2358 0FED  
                    l2286 0EBE                      l2278 0EAB                      l2294 0ED1  
                    l2198 0DB3                      l2470 0383                      l2454 0352  
                    l2462 0366                      l2446 030A                      l2438 027A  
                    l2390 00F7                      l2382 00E0                      l2374 00CC  
                    l2366 00BA                      l2710 0872                      l2702 1629  
                    l2614 1572                      l2606 1553                      l2630 1496  
                    l3158 07B9                      l3094 0451                      l3086 0433  
                    l3078 041B                      l2528 1321                      l2560 16FD  
                    l2552 16E0                      l2544 16C1                      l2720 14FD  
                    l2536 12FC                      l2296 0EE7                      l2288 0EC2  
                    l2480 03A2                      l2464 036A                      l2456 0356  
                    l2448 0332                      l2392 00F8                      l2384 00E8  
                    l2376 00D1                      l2368 00C1                      l2712 08A1  
                    l2704 162D                      l2616 1573                      l2608 1557  
                    l2640 14B5                      l2632 149A                      l2624 1486  
                    l3280 0991                      l2800 0961                      l3096 046C  
                    l3088 0438                      l2730 13BF                      l2562 170F  
                    l2554 16E3                      l2570 172D                      l2546 16CC  
                    l2538 16A9                      l2722 1501                      l2650 1750  
                    l2298 0F25                      l2490 03E8                      l2482 03BB  
                    l2474 038B                      l2466 036B                      l2458 0357  
                    l2394 00FD                      l2386 00ED                      l2378 00D6  
                    l2714 093D                      l2706 162E                      l2618 157A  
                    l2634 149E                      l2626 148C                      l2642 14BB  
                    l2802 0966                      l3098 047A                      l2740 13DF  
                    l2732 13C7                      l2572 1732                      l2564 171D  
                    l2556 16F0                      l2548 16D0                      l2724 153A  
                    l2900 162F                      l2580 002C                      l2660 177E  
                    l2652 1760                      l2492 03F2                      l2476 0390  
                    l2484 03C1                      l2468 036F                      l2396 0102  
                    l2388 00F3                      l2716 0943                      l2636 14A8  
                    l2628 148F                      l2820 09AF                      l2804 0968  
                    l2812 097F                      l2750 000E                      l2742 0003  
                    l2734 13CD                      l2574 173D                      l2566 171E  
                    l2558 16F4                      l2726 153C                      l2910 1659  
                    l2902 163A                      l2590 007C                      l2582 0048  
                    l2670 17B4                      l2662 178B                      l2654 1770  
                    l2646 1747                      l2494 03F4                      l2486 03CE  
                    l2478 039E                      l2398 010A                      l2638 14AE  
                    l2830 09BA                      l2822 09B3                      l2814 099F  
                    l2806 096F                      l2752 000F                      l2744 0006  
                    l2760 14C0                      l2736 13D3                      l2728 13BC  
                    l2568 1727                      l2912 1661                      l2592 00B6  
                    l2584 0050                      l2680 17ED                      l2672 17BF  
                    l2664 1792                      l2648 174C                      l2496 0402  
                    l2488 03D9                      l2840 09ED                      l2824 09B8  
                    l2816 09A7                      l2808 0973                      l2754 0010  
                    l2746 000A                      l2762 14F2                      l2738 13D9  
                    l2930 1688                      l2922 166F                      l2914 1663  
                    l2906 1643                      l2594 00B8                      l2586 0054  
                    l2578 0018                      l2682 17F2                      l2674 17C3  
                    l2666 1796                      l2658 1779                      l2498 0406  
                    l2690 15D3                      l2850 0A2F                      l2842 09F1  
                    l2834 09D6                      l2818 09AB                      l2756 0011  
                    l2748 000D                      l2940 0BA8                      l2932 1698  
                    l2916 1667                      l2924 1681                      l2908 1658  
                    l2588 0078                      l2684 17F6                      l2676 17CD  
                    l2668 17A4                      l2692 15EE                      l2780 0B0C  
                    l2772 0A79                      l2844 09F6                      l2836 09E0  
                    l2852 0A38                      l2758 0014                      l2950 0BBF  
                    l2942 0BAC                      l2934 169D                      l2686 17F7  
                    l2678 17D7                      l2694 15F6                      l2782 0B12  
                    l2774 0A94                      l2766 0A4F                      l2598 1541  
                    l2846 0A24                      l2838 09E6                      l2854 0A4A  
                    l2870 13FD                      l2862 13E7                      l2790 1353  
                    l2880 137B                      l2960 0BD5                      l2952 0BC0  
                    l2944 0BAD                      l2936 0B9B                      l2784 0B35  
                    l2768 0A6A                      l2848 0A2B                      l2872 1403  
                    l2864 13EC                      l2792 135B                      l2882 1382  
                    l2874 136F                      l2890 1338                      l2970 0BEC  
                    l2962 0BD9                      l2946 0BB2                      l2954 0BC2  
                    l2938 0BA2                      l2698 15FF                      l2778 0AA3  
                    l2794 094F                      l2866 13F0                      l2884 1388  
                    l2876 136F                      l2892 1340                      l2980 0C0F  
                    l2972 0BED                      l2964 0BDA                      l2956 0BCA  
                    l2948 0BB7                      l2796 0954                      l2868 13F9  
                    l2788 134E                      l2886 138E                      l2878 1375  
                    l2894 1344                      l2990 0C26                      l2966 0BDF  
                    l2974 0BEF                      l2958 0BCF                      l2798 095A  
                    l2896 12FF                      l2888 1337                      l2992 0C38  
                    l2976 0BFF                      l2984 0C18                      l2968 0BE4  
                    l2898 1305                      l2994 0C40                      l2986 0C1D  
                    l2978 0C0B                      l2996 0C48                      ?_log 00B0  
                    l2998 0C50                      _ADON 00F8                      STR_1 085A  
                    STR_2 083E                      STR_3 0852                      STR_4 0846  
                    STR_5 0856                      STR_6 084D                      _CREN 00C4  
                    u3001 02FC                      u3010 0318                      u3002 0303  
                    u3003 030A                      u3100 038A                      u3101 0389  
                    u3021 0324                      u3110 0390                      u3022 032B  
                    u2310 1599                      u3111 038F                      u3023 0332  
                    u3015 0313                      u2311 1598                      u3200 16B0  
                    u4000 0BDF                      u2400 0DC8                      u3120 03A2  
                    u2320 15B5                      u2305 146C                      u3201 16AF  
                    u4001 0BDE                      u2401 0DC7                      u3121 03A1  
                    u2321 15B4                      u3210 16C1                      u4010 0BE4  
                    u2410 0DE1                      u3130 03B1                      u3050 0356  
                    u2330 15CF                      u3211 16C0                      u4011 0BE3  
                    u2411 0DE0                      u3051 0355                      u3035 0334  
                    u2331 15CE                      u3220 16E0                      u4100 0CA2  
                    u4020 0BFF                      u3300 002C                      u2500 0E86  
                    u2420 0DE5                      u2340 0D89                      u3140 03CE  
                    u3221 16DF                      u4101 0CA1                      u4021 0BFE  
                    u3301 002B                      u2501 0E85                      u2421 0DE4  
                    u2341 0D88                      u3141 03CD                      u3045 034B  
                    u4110 0CAA                      u4030 0C1D                      u3310 0048  
                    u2510 0E8B                      u2430 0E3D                      u2350 0D8F  
                    u2270 13A3                      u3150 03E8                      u3070 036A  
                    u4111 0CA9                      u4031 0C1C                      u3311 0047  
                    u2511 0E8A                      u2431 0E3C                      u2351 0D8E  
                    u2271 13A2                      u3151 03E7                      u3135 03AC  
                    u3071 0369                      u2335 15CB                      u3240 16F4  
                    u4200 0D05                      u4040 0C57                      u3320 0054  
                    u2600 0F30                      u2440 0E48                      u2360 0D94  
                    u3160 0406                      u3080 036F                      u3241 16F3  
                    u4201 0D04                      u4041 0C56                      u3321 0053  
                    u2601 0F2F                      u2521 0E9D                      u2441 0E46  
                    u2361 0D93                      u3161 0405                      u3145 03CA  
                    u3081 036E                      u3065 0359                      u4210 0D14  
                    u4130 0CB9                      u2610 0F55                      u2530 0EAF  
                    u2522 0EA4                      u2450 0E49                      u2370 0DB2  
                    u2290 13B7                      u3090 0383                      u3410 156C  
                    u3235 16E5                      u4131 0CB8                      u3331 0063  
                    u2611 0F54                      u2531 0EAE                      u2523 0EAB  
                    u2435 0E39                      u2371 0DB1                      u2291 13B6  
                    u3155 03E4                      u3091 0382                      u3411 156B  
                    u3180 1335                      u3260 170F                      u4220 0D31  
                    u3340 007C                      u3332 0064                      u3500 174C  
                    u2700 0F97                      u2620 0F5A                      u2540 0EB3  
                    u2460 0E5D                      u2380 0DBD                      u3181 1334  
                    u3261 170E                      u4221 0D30                      u4125 0CAE  
                    u3341 007B                      u3333 0069                      u3501 174B  
                    u2701 0F96                      u2621 0F59                      u2541 0EB2  
                    u2461 0E5C                      u2381 0DBC                      u2285 13AA  
                    u3405 155C                      u3190 12FC                      u4230 0D4E  
                    u4150 0CCD                      u4070 0C6D                      u3334 006A  
                    u3510 1750                      u2710 0F9D                      u2550 0EC2  
                    u2470 0E6C                      u2390 0DC3                      u3430 1580  
                    u3175 1436                      u3255 16F6                      u3191 12FB  
                    u4231 0D4D                      u4215 0D0F                      u4151 0CCC  
                    u4071 0C6C                      u4055 0C59                      u3351 008B  
                    u3335 006F                      u3511 174F                      u2711 0F9C  
                    u2551 0EC1                      u2471 0E6B                      u2391 0DC2  
                    u3431 157F                      u3415 1568                      u3280 172D  
                    u4240 0D65                      u4160 0CD2                      u3360 00B6  
                    u3352 008C                      u3336 0070                      u3600 17CD  
                    u3520 1770                      u2720 0FAF                      u2640 0F70  
                    u2800 00CB                      u3440 148C                      u3281 172C  
                    u3265 170B                      u4241 0D64                      u4225 0D2D  
                    u4161 0CD1                      u4145 0CBC                      u4065 0C62  
                    u3361 00B5                      u3353 0091                      u3601 17CC  
                    u3521 176F                      u2721 0FAE                      u2641 0F6F  
                    u2801 00CA                      u3425 1574                      u3441 148B  
                    u3290 1732                      u4170 0CE6                      u4090 0C89  
                    u3354 0092                      u3610 17E2                      u2730 0FBE  
                    u2650 0F75                      u2570 0EE7                      u2490 0E82  
                    u2810 00D1                      u3370 1549                      u4250 075C  
                    u3291 1731                      u3275 171F                      u4235 0D4A  
                    u4171 0CE5                      u4091 0C88                      u3355 0097  
                    u2651 0F74                      u2635 0F65                      u2571 0EE6  
                    u2491 0E81                      u2811 00D0                      u3371 1548  
                    u4251 075B                      u4180 0CED                      u3356 0098  
                    u3620 17F2                      u3540 1791                      u2740 0FCD  
                    u2660 0F7F                      u2820 00D6                      u3460 149E  
                    u4260 077D                      u4181 0CEC                      u4085 0C70  
                    u3365 00B2                      u3621 17F1                      u3541 1790  
                    u2741 0FCC                      u2661 0F7E                      u2581 0EFE  
                    u2573 0EE3                      u2565 0EC5                      u2485 0E6F  
                    u2901 01B7                      u2821 00D5                      u3461 149D  
                    u4261 077C                      u3710 14F2                      u4190 0CF3  
                    u3630 17F6                      u2750 0FD6                      u2670 0F85  
                    u2590 0F12                      u2582 0EFF                      u2902 01BE  
                    u2830 00F7                      u3390 155B                      u3470 14A8  
                    u4270 0798                      u3711 14F1                      u4191 0CF2  
                    u4095 0C85                      u3631 17F5                      u3615 17DD  
                    u3535 1783                      u2751 0FD5                      u2735 0FB9  
                    u2671 0F84                      u2591 0F13                      u2583 0F04  
                    u2911 01D3                      u2903 01C5                      u2831 00F6  
                    u3391 155A                      u3471 14A7                      u3455 1490  
                    u4271 0797                      u3704 14E6                      u3560 17B3  
                    u2760 0FDB                      u2680 0F8A                      u2592 0F18  
                    u2584 0F05                      u2912 01DA                      u2840 00FD  
                    u3640 15EE                      u3720 0A6A                      u3800 0A38  
                    u4280 07B9                      u3705 14E4                      u3561 17B2  
                    u2761 0FDA                      u2681 0F89                      u2593 0F19  
                    u2585 0F0A                      u2913 01E1                      u2841 00FC  
                    u3641 15ED                      u3721 0A69                      u3385 154D  
                    u3801 0A37                      u4281 07B8                      u2770 0FE8  
                    u2690 0F90                      u2586 0F0B                      u2850 0102  
                    u3730 0A94                      u3490 14BB                      u3810 0A4A  
                    u3555 17A5                      u2771 0FE7                      u2691 0F8F  
                    u2931 0209                      u2851 0101                      u3731 0A93  
                    u3491 14BA                      u3475 14A4                      u3811 0A49  
                    u3580 17C3                      u2780 0FED                      u2932 0210  
                    u2860 0119                      u3820 13F8                      u3740 136D  
                    u3581 17C2                      u2781 0FEC                      u2941 0236  
                    u2933 0217                      u2925 01E3                      u2861 0118  
                    u3485 14AF                      u3821 13F7                      u3741 136C  
                    u4517 0445                      u3910 1680                      u3590 17C9  
                    u2790 0FFE                      u2942 023D                      u2870 011E  
                    u3670 0943                      u3750 095A                      u3830 1419  
                    u4607 1480                      u3911 167F                      u3591 17C8  
                    u3575 17B8                      u2791 0FFD                      u2943 0244  
                    u2871 011D                      u3671 0942                      u3655 0877  
                    u3751 0959                      u3831 1418                      u4527 0474  
                    u3840 1375                      u3920 1687                      u3760 09AF  
                    u4617 13C3                      u3841 1374                      u3921 1686  
                    u3905 1670                      u2961 026C                      u2881 016F  
                    u3665 08AA                      u3761 09AE                      u4537 0496  
                    u3850 134C                      u2962 0273                      u2882 0176  
                    u3770 09D5                      u4627 1309                      u3851 134B  
                    u2971 0299                      u2963 027A                      u2955 0246  
                    u2891 018B                      u2883 017D                      u3771 09D4  
                    u4547 04B8                      u3940 1698                      u3860 163A  
                    u2972 02A0                      u2892 0192                      u3780 09E0  
                    _RCIF 0065                      u3685 14C3                      u4637 142E  
                    u3941 1697                      u3861 1639                      u2981 02C6  
                    u2973 02A7                      u2893 0199                      u3781 09DF  
                    u4557 0694                      u3694 14DA                      u3950 169D  
                    u3870 1651                      u2990 02F0                      u2982 02CD  
                    u3790 09E6                      u3695 14D8                      u4647 144A  
                    u3951 169C                      u3935 168A                      u2983 02D4  
                    u3791 09E5                      u3775 09D1                      u4567 06DD  
                    u3960 0BAC                      u3880 1667                      u3961 0BAB  
                    u3881 1666                      u4577 0728                      u3970 0BB2  
                    u3890 166E                      u3971 0BB1                      u3891 166D  
                    u3875 164C                      u2995 02EB                      u4587 07CC  
                    u3980 0BB7                      u4597 1464                      u3981 0BB6  
                    u3990 0BD9                      u3991 0BD8                      _TXIF 0064  
                    _main 041B                      btemp 007E  __end_of_USART_SendString 134D  
                    log@x 00B0          __end_of_ADC_Init 0018          __end_of_ADC_Read 14FD  
                    start 0000           ___fldiv@new_exp 0051             _LCD_String_xy 136E  
                   ??_log 006D          __end_of_LCD_Char 1486          __end_of_LCD_Init 13E6  
           ___fltol@sign1 0079           __end_of___aldiv 1746           __end_of___fladd 1000  
                   ?_main 0070           __end_of___fldiv 0D78           __end_of___flmul 041B  
         __end_of___fltol 16A9                     _ANSEL 0188           __end_of___lwdiv 1585  
         __end_of___lwmod 14C0                     _RCREG 001A                     _RCSTA 0018  
                   _SPBRG 0099                     _PORTB 0006                     _PORTD 0008  
                   _TRISB 0086                     _TRISD 0088                     _TRISE 0089  
                   _TXREG 0019                     _TXSTA 0098                     _Fila1 01A0  
                   _Fila2 0190           __end_of_dpowers 081A                     _frexp 15D3  
                   _errno 00D1                     pclath 000A                     status 0003  
                   wtemp0 007E           __end_of_sprintf 0A4F            ?_LCD_String_xy 0075  
             ?_USART_Init 0026           __initialization 07DC               log@exponent 00B4  
            __end_of_main 07DC                    ??_main 00B6         __end_of_LCD_Clear 130F  
                  _ADCON0 001F                    ?_frexp 0020                    _ADRESH 001E  
                  _ADRESL 009E          LCD_String_xy@msg 0076          LCD_String_xy@pos 0075  
        LCD_String_xy@row 0078                    _OSCCON 008F                    _TRISA0 0428  
                  _TRISA1 0429                    _TRISA2 042A                    _TRISC6 043E  
                  _TRISC7 043F          __end_of___xxtofl 1800                    ___flge 0018  
                  ___fleq 1585                 ??___aldiv 0078                 ??___fladd 0061  
              _Sensor_Luz 00CD                 ??___fldiv 0047                 ??___flmul 002D  
               ??___fltol 0074                 ??___lwdiv 0074                 ??___lwmod 007C  
         ADC_Read@channel 0070           ADC_Read@digital 0075                    _strcat 13E6  
                  _strcpy 134D                 ?_ADC_Init 0070                 ?_ADC_Read 0070  
               ??_sprintf 0025                ___flge@ff1 0070                ___flge@ff2 0074  
            ___xxtofl@arg 007A              ___xxtofl@exp 0079              ___xxtofl@val 0070  
              ___fleq@ff1 0070                ___fleq@ff2 0074          __end_oflog@coeff 083E  
               ?_LCD_Char 0070   __end_of__initialization 07FC                 ?_LCD_Init 0070  
         ??_LCD_String_xy 0077              eval_poly@res 00AC                ___fltol@f1 0070  
          __pcstackCOMMON 0070              __pidataBANK3 130F             __end_of_frexp 162F  
            ??_LCD_String 0073            _OPTION_REGbits 0081            _Sensor_Humedad 00D3  
              ??_ADC_Init 0070                ??_ADC_Read 0072                   ??_frexp 007C  
              __pbssBANK0 006E                __pbssBANK1 00CD                __pbssBANK3 0190  
              ??_LCD_Char 0070                ??_LCD_Init 0073        __end_of_LCD_String 1336  
       ?_USART_SendString 0070         __end_of__Umul8_16 13BC        ??_USART_SendString 0071  
              __pmaintext 041B                   ?___flge 0070                   ?___fleq 0070  
                 ?_strcat 0070                   ?_strcpy 0070                 ?___xxtofl 0070  
              __stringtab 0800             LCD_String@msg 0074                   _Humedad 00DB  
            ??_USART_Init 0079                   ___aldiv 16A9                   ___fladd 0D78  
                 ___fldiv 0B9B                   ___flmul 00BA                   ___fltol 162F  
                 ___lwdiv 1541                   ___lwmod 1486               _Temperatura 00DF  
       __end_of_eval_poly 094C                   __ptext1 134D                   __ptext2 13E6  
                 __ptext3 094C                   __ptext4 1486                   __ptext5 1541  
                 __ptext6 0A4F                   __ptext7 15D3                   __ptext8 1585  
                 __ptext9 0872       USART_SendString@out 0072                   _dpowers 0810  
              ??___xxtofl 0074          ___aldiv@dividend 0074                 _LCD_Clear 12FF  
      __end_of_USART_Init 1541                   _sprintf 094C                   clrloop0 12EE  
    end_of_initialization 07FC            LCD_Command@cmd 0072                 _RCSTAbits 0018  
        ___aldiv@quotient 0022                 _PORTDbits 0008                 _PORTEbits 0009  
             ___fladd@grs 006C             ___xxtofl@sign 0078                ?_LCD_Clear 0070  
             ___fldiv@grs 0053               ___fldiv@rem 004C       USART_Init@baud_rate 0026  
             ___flmul@grs 0033             ?_USART_TxChar 0070             ??_LCD_Command 0070  
          __end_of___flge 00BA            __end_of___fleq 15D3            __end_of_strcat 141A  
          __end_of_strcpy 136E        keypad_getkey@F1296 01B0       start_initialization 07DC  
              eval_poly@d 00A4                eval_poly@n 00A5                eval_poly@x 00A0  
             __end_of_log 0B9B                frexp@value 0020            ??_USART_TxChar 0070  
   __end_of_LCD_String_xy 1395                  ??___flge 0078                  ??___fleq 0078  
              init_fetch0 085F                 __Umul8_16 1395               __pdataBANK3 01B0  
                ??_strcat 0072                  ??_strcpy 0071                 ___fladd@a 005D  
               ___fladd@b 0059                 ___fldiv@a 003F                 ___fldiv@b 0043  
     __end_of_LCD_Command 1450                 ___flmul@a 0029                 ___flmul@b 0025  
               ___latbits 0002             __pcstackBANK0 0020             __pcstackBANK1 00A0  
             ??_LCD_Clear 0073    main@Porcentaje_Humedad 00B9               sprintf@flag 0028  
             sprintf@prec 0029                 _main$1091 00BD                 _main$1092 00C1  
               _main$1093 00C5          ___lwdiv@dividend 0072     main@Valor_Temperatura 00C9  
                ?___aldiv 0070                  ?___fladd 0059                  ?___fldiv 003F  
                ?___flmul 0025                  ?___fltol 0070                ?__Umul8_16 0070  
                ?___lwdiv 0070                  ?___lwmod 0078                 __pstrings 0800  
               _eval_poly 0872                  _ADC_Init 0003                  _ADC_Read 14C0  
        ___lwdiv@quotient 0075     LCD_String_xy@location 0079                  ?_sprintf 0020  
         ___aldiv@divisor 0070                  _LCD_Char 1450           ___aldiv@counter 0020  
                _LCD_Init 13BC                 clear_ram0 12ED               _LCD_Command 141A  
              _ADCON0bits 001F               __stringbase 080F                _ADCON1bits 009F  
    __end_of_USART_TxChar 12FF                ?_eval_poly 00A0                 frexp@eptr 0024  
             ??__Umul8_16 0072        __end_of__stringtab 0810          _USART_SendString 1336  
              sprintf@val 002B                  ___xxtofl 1746                strcat@from 0070  
         ___lwdiv@divisor 0070        _Sensor_Temperatura 00D7           ___lwdiv@counter 0077  
                __ptext10 00BA                  __ptext11 1395                  __ptext20 16A9  
                __ptext12 0D78                  __ptext21 136E                  __ptext13 1746  
                __ptext22 131F                  __ptext14 0018                  __ptext23 1450  
                __ptext15 162F                  __ptext24 13BC                  __ptext16 0B9B  
                __ptext25 12FF                  __ptext17 1336                  __ptext26 141A  
                __ptext18 12F5                  __ptext27 14C0                  __ptext19 14FD  
                __ptext28 0003                strcpy@from 0070           _USART_Init$1094 0079  
              _LCD_String 131F                  log@coeff 081A               ??_eval_poly 00A7  
                init_ram0 0863           USART_TxChar@out 0070                 sprintf@ap 002A  
               sprintf@sp 002D          ___lwmod@dividend 007A                 stringcode 080A  
  __Umul8_16@multiplicand 0070                  sprintf@c 002E                  sprintf@f 0020  
                strcat@cp 0074                  strcat@to 0073           ___lwmod@divisor 0078  
                strcpy@cp 0072                  strcpy@to 0073           ___lwmod@counter 007D  
                stringdir 080A                  stringtab 0800              ___aldiv@sign 0021  
           ___fladd@signs 0069              ___fladd@aexp 006A              ___fladd@bexp 006B  
    __Umul8_16@multiplier 0078              _USART_TxChar 12F5                _USART_Init 14FD  
       __Umul8_16@product 0074  
